
interp.b.o:     file format elf64-x86-64


Disassembly of section .text.caml_interprete:

0000000000000000 <caml_interprete>:
       0:	f3 0f 1e fa          	endbr64 
       4:	41 57                	push   %r15
       6:	48 89 fe             	mov    %rdi,%rsi
       9:	41 56                	push   %r14
       b:	41 55                	push   %r13
       d:	41 54                	push   %r12
       f:	55                   	push   %rbp
      10:	53                   	push   %rbx
      11:	48 81 ec e8 02 00 00 	sub    $0x2e8,%rsp
      18:	48 89 7c 24 08       	mov    %rdi,0x8(%rsp)
      1d:	48 8d bc 24 10 02 00 	lea    0x210(%rsp),%rdi
      24:	00 
      25:	64 48 8b 04 25 28 00 	mov    %fs:0x28,%rax
      2c:	00 00 
      2e:	48 89 84 24 d8 02 00 	mov    %rax,0x2d8(%rsp)
      35:	00 
      36:	31 c0                	xor    %eax,%eax
      38:	48 8b 05 00 00 00 00 	mov    0x0(%rip),%rax        # 3f <caml_interprete+0x3f>
      3f:	48 c7 84 24 e8 01 00 	movq   $0x1,0x1e8(%rsp)
      46:	00 01 00 00 00 
      4b:	64 48 8b 00          	mov    %fs:(%rax),%rax
      4f:	48 89 bc 24 f0 01 00 	mov    %rdi,0x1f0(%rsp)
      56:	00 
      57:	48 89 04 24          	mov    %rax,(%rsp)
      5b:	48 8b 80 a0 00 00 00 	mov    0xa0(%rax),%rax
      62:	48 89 84 24 f8 01 00 	mov    %rax,0x1f8(%rsp)
      69:	00 
      6a:	48 8d 84 24 e8 01 00 	lea    0x1e8(%rsp),%rax
      71:	00 
      72:	48 89 84 24 00 02 00 	mov    %rax,0x200(%rsp)
      79:	00 
      7a:	48 85 f6             	test   %rsi,%rsi
      7d:	0f 84 bd 05 00 00    	je     640 <caml_interprete+0x640>
      83:	48 8b 1c 24          	mov    (%rsp),%rbx
      87:	31 f6                	xor    %esi,%esi
      89:	48 8b 83 d8 01 00 00 	mov    0x1d8(%rbx),%rax
      90:	48 8b 53 20          	mov    0x20(%rbx),%rdx
      94:	48 89 44 24 18       	mov    %rax,0x18(%rsp)
      99:	48 8b 42 10          	mov    0x10(%rdx),%rax
      9d:	48 2b 02             	sub    (%rdx),%rax
      a0:	48 c1 f8 03          	sar    $0x3,%rax
      a4:	48 89 44 24 20       	mov    %rax,0x20(%rsp)
      a9:	48 8b 83 e8 01 00 00 	mov    0x1e8(%rbx),%rax
      b0:	48 89 44 24 10       	mov    %rax,0x10(%rsp)
      b5:	e8 00 00 00 00       	callq  ba <caml_interprete+0xba>
      ba:	f3 0f 1e fa          	endbr64 
      be:	48 8b 1c 24          	mov    (%rsp),%rbx
      c2:	41 89 c0             	mov    %eax,%r8d
      c5:	48 8b 43 20          	mov    0x20(%rbx),%rax
      c9:	45 85 c0             	test   %r8d,%r8d
      cc:	0f 84 0e 01 00 00    	je     1e0 <caml_interprete+0x1e0>
      d2:	48 8b ac 24 e8 01 00 	mov    0x1e8(%rsp),%rbp
      d9:	00 
      da:	4c 8b 30             	mov    (%rax),%r14
      dd:	48 8b 83 e0 01 00 00 	mov    0x1e0(%rbx),%rax
      e4:	49 89 ed             	mov    %rbp,%r13
      e7:	48 39 83 d8 01 00 00 	cmp    %rax,0x1d8(%rbx)
      ee:	0f 8d 7c 01 00 00    	jge    270 <caml_interprete+0x270>
      f4:	48 8b 04 24          	mov    (%rsp),%rax
      f8:	48 83 b8 c0 00 00 00 	cmpq   $0x0,0xc0(%rax)
      ff:	00 
     100:	0f 85 ba 00 00 00    	jne    1c0 <caml_interprete+0x1c0>
     106:	48 8b 04 24          	mov    (%rsp),%rax
     10a:	48 8b 80 d8 01 00 00 	mov    0x1d8(%rax),%rax
     111:	48 8b 0c 24          	mov    (%rsp),%rcx
     115:	48 8b 79 20          	mov    0x20(%rcx),%rdi
     119:	48 8b 57 10          	mov    0x10(%rdi),%rdx
     11d:	48 85 c0             	test   %rax,%rax
     120:	0f 8e 0a 01 00 00    	jle    230 <caml_interprete+0x230>
     126:	48 8b 4a 18          	mov    0x18(%rdx),%rcx
     12a:	48 85 c9             	test   %rcx,%rcx
     12d:	0f 84 d5 05 00 00    	je     708 <caml_interprete+0x708>
     133:	48 8b 5a 08          	mov    0x8(%rdx),%rbx
     137:	4c 89 37             	mov    %r14,(%rdi)
     13a:	4c 8b 34 24          	mov    (%rsp),%r14
     13e:	49 89 4e 20          	mov    %rcx,0x20(%r14)
     142:	48 8b 29             	mov    (%rcx),%rbp
     145:	e8 00 00 00 00       	callq  14a <caml_interprete+0x14a>
     14a:	48 8b 45 00          	mov    0x0(%rbp),%rax
     14e:	48 d1 f8             	sar    %rax
     151:	49 89 86 d8 01 00 00 	mov    %rax,0x1d8(%r14)
     158:	4c 8b 65 08          	mov    0x8(%rbp),%r12
     15c:	4c 8d 75 08          	lea    0x8(%rbp),%r14
     160:	4c 89 6d 08          	mov    %r13,0x8(%rbp)
     164:	4c 8b 3b             	mov    (%rbx),%r15
     167:	49 89 dd             	mov    %rbx,%r13
     16a:	49 d1 fc             	sar    %r12
     16d:	48 8b 04 24          	mov    (%rsp),%rax
     171:	48 8b 40 20          	mov    0x20(%rax),%rax
     175:	48 8d 90 a8 00 00 00 	lea    0xa8(%rax),%rdx
     17c:	49 39 d6             	cmp    %rdx,%r14
     17f:	0f 82 1b 01 00 00    	jb     2a0 <caml_interprete+0x2a0>
     185:	f3 0f 1e fa          	endbr64 
     189:	48 8b 3c 24          	mov    (%rsp),%rdi
     18d:	48 8b 07             	mov    (%rdi),%rax
     190:	48 39 47 08          	cmp    %rax,0x8(%rdi)
     194:	0f 82 36 01 00 00    	jb     2d0 <caml_interprete+0x2d0>
     19a:	e8 00 00 00 00       	callq  19f <caml_interprete+0x19f>
     19f:	85 c0                	test   %eax,%eax
     1a1:	0f 85 29 01 00 00    	jne    2d0 <caml_interprete+0x2d0>
     1a7:	4c 89 f8             	mov    %r15,%rax
     1aa:	48 8d 3d 66 08 00 00 	lea    0x866(%rip),%rdi        # a17 <caml_interprete+0xa17>
     1b1:	4d 8d 7f 04          	lea    0x4(%r15),%r15
     1b5:	48 63 00             	movslq (%rax),%rax
     1b8:	48 01 f8             	add    %rdi,%rax
     1bb:	ff e0                	jmpq   *%rax
     1bd:	0f 1f 00             	nopl   (%rax)
     1c0:	4c 89 f6             	mov    %r14,%rsi
     1c3:	31 d2                	xor    %edx,%edx
     1c5:	48 89 ef             	mov    %rbp,%rdi
     1c8:	e8 00 00 00 00       	callq  1cd <caml_interprete+0x1cd>
     1cd:	48 8b 04 24          	mov    (%rsp),%rax
     1d1:	48 8b 80 d8 01 00 00 	mov    0x1d8(%rax),%rax
     1d8:	e9 34 ff ff ff       	jmpq   111 <caml_interprete+0x111>
     1dd:	0f 1f 00             	nopl   (%rax)
     1e0:	48 8b 0c 24          	mov    (%rsp),%rcx
     1e4:	31 ff                	xor    %edi,%edi
     1e6:	41 bd 01 00 00 00    	mov    $0x1,%r13d
     1ec:	45 31 e4             	xor    %r12d,%r12d
     1ef:	48 8d 94 24 f0 01 00 	lea    0x1f0(%rsp),%rdx
     1f6:	00 
     1f7:	48 89 91 e8 01 00 00 	mov    %rdx,0x1e8(%rcx)
     1fe:	48 c7 81 d8 01 00 00 	movq   $0x1,0x1d8(%rcx)
     205:	01 00 00 00 
     209:	4c 8b 30             	mov    (%rax),%r14
     20c:	e8 00 00 00 00       	callq  211 <caml_interprete+0x211>
     211:	48 8d 35 ff 07 00 00 	lea    0x7ff(%rip),%rsi        # a17 <caml_interprete+0xa17>
     218:	48 89 c3             	mov    %rax,%rbx
     21b:	48 8b 44 24 08       	mov    0x8(%rsp),%rax
     220:	4c 8d 78 04          	lea    0x4(%rax),%r15
     224:	48 63 00             	movslq (%rax),%rax
     227:	48 01 f0             	add    %rsi,%rax
     22a:	ff e0                	jmpq   *%rax
     22c:	0f 1f 40 00          	nopl   0x0(%rax)
     230:	4c 8d 34 c2          	lea    (%rdx,%rax,8),%r14
     234:	48 8b 04 24          	mov    (%rsp),%rax
     238:	48 8d 0d d8 07 00 00 	lea    0x7d8(%rip),%rcx        # a17 <caml_interprete+0xa17>
     23f:	49 8b 56 08          	mov    0x8(%r14),%rdx
     243:	4d 8b 3e             	mov    (%r14),%r15
     246:	49 83 c6 20          	add    $0x20,%r14
     24a:	48 d1 fa             	sar    %rdx
     24d:	48 89 90 d8 01 00 00 	mov    %rdx,0x1d8(%rax)
     254:	4c 89 f8             	mov    %r15,%rax
     257:	4d 8b 66 f8          	mov    -0x8(%r14),%r12
     25b:	4d 8d 7f 04          	lea    0x4(%r15),%r15
     25f:	48 63 00             	movslq (%rax),%rax
     262:	49 8b 5e f0          	mov    -0x10(%r14),%rbx
     266:	49 d1 fc             	sar    %r12
     269:	48 01 c8             	add    %rcx,%rax
     26c:	ff e0                	jmpq   *%rax
     26e:	66 90                	xchg   %ax,%ax
     270:	be 01 00 00 00       	mov    $0x1,%esi
     275:	bf 04 00 00 00       	mov    $0x4,%edi
     27a:	e8 00 00 00 00       	callq  27f <caml_interprete+0x27f>
     27f:	48 8b 04 24          	mov    (%rsp),%rax
     283:	48 83 b8 c0 00 00 00 	cmpq   $0x0,0xc0(%rax)
     28a:	00 
     28b:	0f 84 75 fe ff ff    	je     106 <caml_interprete+0x106>
     291:	e9 2a ff ff ff       	jmpq   1c0 <caml_interprete+0x1c0>
     296:	66 2e 0f 1f 84 00 00 	nopw   %cs:0x0(%rax,%rax,1)
     29d:	00 00 00 
     2a0:	4c 89 30             	mov    %r14,(%rax)
     2a3:	bf 10 00 00 00       	mov    $0x10,%edi
     2a8:	e8 00 00 00 00       	callq  2ad <caml_interprete+0x2ad>
     2ad:	85 c0                	test   %eax,%eax
     2af:	0f 84 54 2c 00 00    	je     2f09 <caml_interprete+0x2f09>
     2b5:	48 8b 04 24          	mov    (%rsp),%rax
     2b9:	48 8b 40 20          	mov    0x20(%rax),%rax
     2bd:	4c 8b 30             	mov    (%rax),%r14
     2c0:	e9 c0 fe ff ff       	jmpq   185 <caml_interprete+0x185>
     2c5:	49 83 ef 04          	sub    $0x4,%r15
     2c9:	0f 1f 80 00 00 00 00 	nopl   0x0(%rax)
     2d0:	49 89 5e f0          	mov    %rbx,-0x10(%r14)
     2d4:	48 8b 1c 24          	mov    (%rsp),%rbx
     2d8:	4b 8d 44 24 01       	lea    0x1(%r12,%r12,1),%rax
     2dd:	49 8d 56 d0          	lea    -0x30(%r14),%rdx
     2e1:	4d 89 6e d0          	mov    %r13,-0x30(%r14)
     2e5:	4d 89 7e e8          	mov    %r15,-0x18(%r14)
     2e9:	49 c7 46 d8 01 00 00 	movq   $0x1,-0x28(%r14)
     2f0:	00 
     2f1:	49 c7 46 e0 01 00 00 	movq   $0x1,-0x20(%r14)
     2f8:	00 
     2f9:	49 89 46 f8          	mov    %rax,-0x8(%r14)
     2fd:	48 8b 43 20          	mov    0x20(%rbx),%rax
     301:	48 89 10             	mov    %rdx,(%rax)
     304:	e8 00 00 00 00       	callq  309 <caml_interprete+0x309>
     309:	48 8b 43 20          	mov    0x20(%rbx),%rax
     30d:	48 8d 0d 03 07 00 00 	lea    0x703(%rip),%rcx        # a17 <caml_interprete+0xa17>
     314:	4c 8b 30             	mov    (%rax),%r14
     317:	4d 8b 7e 18          	mov    0x18(%r14),%r15
     31b:	4d 8b 66 28          	mov    0x28(%r14),%r12
     31f:	49 83 c6 30          	add    $0x30,%r14
     323:	4d 8b 6e d0          	mov    -0x30(%r14),%r13
     327:	49 8b 5e f0          	mov    -0x10(%r14),%rbx
     32b:	4c 89 f8             	mov    %r15,%rax
     32e:	49 d1 fc             	sar    %r12
     331:	4d 8d 7f 04          	lea    0x4(%r15),%r15
     335:	48 63 00             	movslq (%rax),%rax
     338:	48 01 c8             	add    %rcx,%rax
     33b:	ff e0                	jmpq   *%rax
     33d:	f3 0f 1e fa          	endbr64 
     341:	f3 0f 1e fa          	endbr64 
     345:	4c 89 f0             	mov    %r14,%rax
     348:	48 8d 3d c8 06 00 00 	lea    0x6c8(%rip),%rdi        # a17 <caml_interprete+0xa17>
     34f:	4d 8d 76 f8          	lea    -0x8(%r14),%r14
     353:	4c 89 68 f8          	mov    %r13,-0x8(%rax)
     357:	4c 89 f8             	mov    %r15,%rax
     35a:	4d 8d 7f 04          	lea    0x4(%r15),%r15
     35e:	48 63 00             	movslq (%rax),%rax
     361:	48 01 f8             	add    %rdi,%rax
     364:	ff e0                	jmpq   *%rax
     366:	f3 0f 1e fa          	endbr64 
     36a:	4c 89 f0             	mov    %r14,%rax
     36d:	4d 8d 76 f8          	lea    -0x8(%r14),%r14
     371:	4c 89 68 f8          	mov    %r13,-0x8(%rax)
     375:	f3 0f 1e fa          	endbr64 
     379:	4c 89 f8             	mov    %r15,%rax
     37c:	4d 8d 7f 04          	lea    0x4(%r15),%r15
     380:	48 8d 35 90 06 00 00 	lea    0x690(%rip),%rsi        # a17 <caml_interprete+0xa17>
     387:	48 63 00             	movslq (%rax),%rax
     38a:	4d 8b 2c c6          	mov    (%r14,%rax,8),%r13
     38e:	4c 89 f8             	mov    %r15,%rax
     391:	4d 8d 7f 04          	lea    0x4(%r15),%r15
     395:	48 63 00             	movslq (%rax),%rax
     398:	48 01 f0             	add    %rsi,%rax
     39b:	ff e0                	jmpq   *%rax
     39d:	f3 0f 1e fa          	endbr64 
     3a1:	4c 89 f0             	mov    %r14,%rax
     3a4:	4d 8d 76 f8          	lea    -0x8(%r14),%r14
     3a8:	4c 89 68 f8          	mov    %r13,-0x8(%rax)
     3ac:	f3 0f 1e fa          	endbr64 
     3b0:	4c 89 f8             	mov    %r15,%rax
     3b3:	4d 8d 7f 04          	lea    0x4(%r15),%r15
     3b7:	8b 38                	mov    (%rax),%edi
     3b9:	e8 00 00 00 00       	callq  3be <caml_interprete+0x3be>
     3be:	48 8d 35 52 06 00 00 	lea    0x652(%rip),%rsi        # a17 <caml_interprete+0xa17>
     3c5:	49 89 c5             	mov    %rax,%r13
     3c8:	4c 89 f8             	mov    %r15,%rax
     3cb:	4d 8d 7f 04          	lea    0x4(%r15),%r15
     3cf:	48 63 00             	movslq (%rax),%rax
     3d2:	48 01 f0             	add    %rsi,%rax
     3d5:	ff e0                	jmpq   *%rax
     3d7:	f3 0f 1e fa          	endbr64 
     3db:	4c 89 f0             	mov    %r14,%rax
     3de:	4d 8d 76 f8          	lea    -0x8(%r14),%r14
     3e2:	4c 89 68 f8          	mov    %r13,-0x8(%rax)
     3e6:	f3 0f 1e fa          	endbr64 
     3ea:	31 ff                	xor    %edi,%edi
     3ec:	e8 00 00 00 00       	callq  3f1 <caml_interprete+0x3f1>
     3f1:	48 8d 3d 1f 06 00 00 	lea    0x61f(%rip),%rdi        # a17 <caml_interprete+0xa17>
     3f8:	49 89 c5             	mov    %rax,%r13
     3fb:	4c 89 f8             	mov    %r15,%rax
     3fe:	4d 8d 7f 04          	lea    0x4(%r15),%r15
     402:	48 63 00             	movslq (%rax),%rax
     405:	48 01 f8             	add    %rdi,%rax
     408:	ff e0                	jmpq   *%rax
     40a:	f3 0f 1e fa          	endbr64 
     40e:	4c 89 f0             	mov    %r14,%rax
     411:	4d 8d 76 f8          	lea    -0x8(%r14),%r14
     415:	4c 89 68 f8          	mov    %r13,-0x8(%rax)
     419:	f3 0f 1e fa          	endbr64 
     41d:	49 63 17             	movslq (%r15),%rdx
     420:	48 8b 05 00 00 00 00 	mov    0x0(%rip),%rax        # 427 <caml_interprete+0x427>
     427:	48 8d 0d e9 05 00 00 	lea    0x5e9(%rip),%rcx        # a17 <caml_interprete+0xa17>
     42e:	4c 8b 2c d0          	mov    (%rax,%rdx,8),%r13
     432:	4c 89 f8             	mov    %r15,%rax
     435:	4d 8d 7f 04          	lea    0x4(%r15),%r15
     439:	48 63 40 04          	movslq 0x4(%rax),%rax
     43d:	4d 8b 6c c5 00       	mov    0x0(%r13,%rax,8),%r13
     442:	4c 89 f8             	mov    %r15,%rax
     445:	4d 8d 7f 08          	lea    0x8(%r15),%r15
     449:	48 63 40 04          	movslq 0x4(%rax),%rax
     44d:	48 01 c8             	add    %rcx,%rax
     450:	ff e0                	jmpq   *%rax
     452:	f3 0f 1e fa          	endbr64 
     456:	4c 89 f0             	mov    %r14,%rax
     459:	4d 8d 76 f8          	lea    -0x8(%r14),%r14
     45d:	4c 89 68 f8          	mov    %r13,-0x8(%rax)
     461:	f3 0f 1e fa          	endbr64 
     465:	49 63 17             	movslq (%r15),%rdx
     468:	48 8b 05 00 00 00 00 	mov    0x0(%rip),%rax        # 46f <caml_interprete+0x46f>
     46f:	48 8d 35 a1 05 00 00 	lea    0x5a1(%rip),%rsi        # a17 <caml_interprete+0xa17>
     476:	4c 8b 2c d0          	mov    (%rax,%rdx,8),%r13
     47a:	4c 89 f8             	mov    %r15,%rax
     47d:	4d 8d 7f 08          	lea    0x8(%r15),%r15
     481:	48 63 40 04          	movslq 0x4(%rax),%rax
     485:	48 01 f0             	add    %rsi,%rax
     488:	ff e0                	jmpq   *%rax
     48a:	f3 0f 1e fa          	endbr64 
     48e:	4c 89 f0             	mov    %r14,%rax
     491:	4d 8d 76 f8          	lea    -0x8(%r14),%r14
     495:	4c 89 68 f8          	mov    %r13,-0x8(%rax)
     499:	f3 0f 1e fa          	endbr64 
     49d:	4c 89 f8             	mov    %r15,%rax
     4a0:	48 8d 3d 70 05 00 00 	lea    0x570(%rip),%rdi        # a17 <caml_interprete+0xa17>
     4a7:	4c 8d 6b 18          	lea    0x18(%rbx),%r13
     4ab:	48 63 00             	movslq (%rax),%rax
     4ae:	4d 8d 7f 04          	lea    0x4(%r15),%r15
     4b2:	48 01 f8             	add    %rdi,%rax
     4b5:	ff e0                	jmpq   *%rax
     4b7:	f3 0f 1e fa          	endbr64 
     4bb:	4c 89 f0             	mov    %r14,%rax
     4be:	4d 8d 76 f8          	lea    -0x8(%r14),%r14
     4c2:	4c 89 68 f8          	mov    %r13,-0x8(%rax)
     4c6:	f3 0f 1e fa          	endbr64 
     4ca:	4c 89 f8             	mov    %r15,%rax
     4cd:	48 8d 0d 43 05 00 00 	lea    0x543(%rip),%rcx        # a17 <caml_interprete+0xa17>
     4d4:	4d 8d 7f 04          	lea    0x4(%r15),%r15
     4d8:	49 89 dd             	mov    %rbx,%r13
     4db:	48 63 00             	movslq (%rax),%rax
     4de:	48 01 c8             	add    %rcx,%rax
     4e1:	ff e0                	jmpq   *%rax
     4e3:	f3 0f 1e fa          	endbr64 
     4e7:	4c 89 f0             	mov    %r14,%rax
     4ea:	4d 8d 76 f8          	lea    -0x8(%r14),%r14
     4ee:	4c 89 68 f8          	mov    %r13,-0x8(%rax)
     4f2:	f3 0f 1e fa          	endbr64 
     4f6:	4c 89 f8             	mov    %r15,%rax
     4f9:	48 8d 35 17 05 00 00 	lea    0x517(%rip),%rsi        # a17 <caml_interprete+0xa17>
     500:	4c 8d 6b e8          	lea    -0x18(%rbx),%r13
     504:	48 63 00             	movslq (%rax),%rax
     507:	4d 8d 7f 04          	lea    0x4(%r15),%r15
     50b:	48 01 f0             	add    %rsi,%rax
     50e:	ff e0                	jmpq   *%rax
     510:	f3 0f 1e fa          	endbr64 
     514:	4c 89 f0             	mov    %r14,%rax
     517:	4d 8d 76 f8          	lea    -0x8(%r14),%r14
     51b:	4c 89 68 f8          	mov    %r13,-0x8(%rax)
     51f:	f3 0f 1e fa          	endbr64 
     523:	4c 89 f8             	mov    %r15,%rax
     526:	4d 8d 7f 04          	lea    0x4(%r15),%r15
     52a:	48 8d 3d e6 04 00 00 	lea    0x4e6(%rip),%rdi        # a17 <caml_interprete+0xa17>
     531:	48 63 00             	movslq (%rax),%rax
     534:	4c 8d 2c c3          	lea    (%rbx,%rax,8),%r13
     538:	4c 89 f8             	mov    %r15,%rax
     53b:	4d 8d 7f 04          	lea    0x4(%r15),%r15
     53f:	48 63 00             	movslq (%rax),%rax
     542:	48 01 f8             	add    %rdi,%rax
     545:	ff e0                	jmpq   *%rax
     547:	f3 0f 1e fa          	endbr64 
     54b:	4c 89 f0             	mov    %r14,%rax
     54e:	4d 8d 76 f8          	lea    -0x8(%r14),%r14
     552:	4c 89 68 f8          	mov    %r13,-0x8(%rax)
     556:	f3 0f 1e fa          	endbr64 
     55a:	4c 89 f8             	mov    %r15,%rax
     55d:	4d 8d 7f 04          	lea    0x4(%r15),%r15
     561:	48 8d 0d af 04 00 00 	lea    0x4af(%rip),%rcx        # a17 <caml_interprete+0xa17>
     568:	48 63 00             	movslq (%rax),%rax
     56b:	4c 8b 2c c3          	mov    (%rbx,%rax,8),%r13
     56f:	4c 89 f8             	mov    %r15,%rax
     572:	4d 8d 7f 04          	lea    0x4(%r15),%r15
     576:	48 63 00             	movslq (%rax),%rax
     579:	48 01 c8             	add    %rcx,%rax
     57c:	ff e0                	jmpq   *%rax
     57e:	f3 0f 1e fa          	endbr64 
     582:	4c 89 f0             	mov    %r14,%rax
     585:	4d 8d 76 f8          	lea    -0x8(%r14),%r14
     589:	4c 89 68 f8          	mov    %r13,-0x8(%rax)
     58d:	f3 0f 1e fa          	endbr64 
     591:	49 63 07             	movslq (%r15),%rax
     594:	48 8d 3d 7c 04 00 00 	lea    0x47c(%rip),%rdi        # a17 <caml_interprete+0xa17>
     59b:	4c 8d 6c 00 01       	lea    0x1(%rax,%rax,1),%r13
     5a0:	4c 89 f8             	mov    %r15,%rax
     5a3:	4d 8d 7f 08          	lea    0x8(%r15),%r15
     5a7:	48 63 40 04          	movslq 0x4(%rax),%rax
     5ab:	48 01 f8             	add    %rdi,%rax
     5ae:	ff e0                	jmpq   *%rax
     5b0:	f3 0f 1e fa          	endbr64 
     5b4:	f3 0f 1e fa          	endbr64 
     5b8:	49 8b 06             	mov    (%r14),%rax
     5bb:	48 8d 0d 55 04 00 00 	lea    0x455(%rip),%rcx        # a17 <caml_interprete+0xa17>
     5c2:	49 83 c6 08          	add    $0x8,%r14
     5c6:	48 d1 f8             	sar    %rax
     5c9:	42 0f b6 04 28       	movzbl (%rax,%r13,1),%eax
     5ce:	4c 8d 6c 00 01       	lea    0x1(%rax,%rax,1),%r13
     5d3:	4c 89 f8             	mov    %r15,%rax
     5d6:	4d 8d 7f 04          	lea    0x4(%r15),%r15
     5da:	48 63 00             	movslq (%rax),%rax
     5dd:	48 01 c8             	add    %rcx,%rax
     5e0:	ff e0                	jmpq   *%rax
     5e2:	48 8b 05 00 00 00 00 	mov    0x0(%rip),%rax        # 5e9 <caml_interprete+0x5e9>
     5e9:	4c 8b 68 68          	mov    0x68(%rax),%r13
     5ed:	f3 0f 1e fa          	endbr64 
     5f1:	f3 0f 1e fa          	endbr64 
     5f5:	48 8b 04 24          	mov    (%rsp),%rax
     5f9:	48 8b 88 e0 01 00 00 	mov    0x1e0(%rax),%rcx
     600:	48 39 88 d8 01 00 00 	cmp    %rcx,0x1d8(%rax)
     607:	0f 8d ad 1f 00 00    	jge    25ba <caml_interprete+0x25ba>
     60d:	48 8b 04 24          	mov    (%rsp),%rax
     611:	48 83 b8 c0 00 00 00 	cmpq   $0x0,0xc0(%rax)
     618:	00 
     619:	0f 84 e7 fa ff ff    	je     106 <caml_interprete+0x106>
     61f:	49 8d 57 fc          	lea    -0x4(%r15),%rdx
     623:	4c 89 f0             	mov    %r14,%rax
     626:	49 8d 76 f8          	lea    -0x8(%r14),%rsi
     62a:	4c 89 ef             	mov    %r13,%rdi
     62d:	48 89 50 f8          	mov    %rdx,-0x8(%rax)
     631:	31 d2                	xor    %edx,%edx
     633:	49 89 f6             	mov    %rsi,%r14
     636:	e8 00 00 00 00       	callq  63b <caml_interprete+0x63b>
     63b:	e9 c6 fa ff ff       	jmpq   106 <caml_interprete+0x106>
     640:	48 8d 35 00 00 00 00 	lea    0x0(%rip),%rsi        # 647 <caml_interprete+0x647>
     647:	31 c9                	xor    %ecx,%ecx
     649:	ba 03 00 00 00       	mov    $0x3,%edx
     64e:	48 8d 7e f4          	lea    -0xc(%rsi),%rdi
     652:	e8 00 00 00 00       	callq  657 <caml_interprete+0x657>
     657:	48 8d 05 00 00 00 00 	lea    0x0(%rip),%rax        # 65e <caml_interprete+0x65e>
     65e:	be 0c 00 00 00       	mov    $0xc,%esi
     663:	48 8d 3d 00 00 00 00 	lea    0x0(%rip),%rdi        # 66a <caml_interprete+0x66a>
     66a:	48 89 05 00 00 00 00 	mov    %rax,0x0(%rip)        # 671 <caml_interprete+0x671>
     671:	48 8d 05 9f 03 00 00 	lea    0x39f(%rip),%rax        # a17 <caml_interprete+0xa17>
     678:	48 89 05 00 00 00 00 	mov    %rax,0x0(%rip)        # 67f <caml_interprete+0x67f>
     67f:	e8 00 00 00 00       	callq  684 <caml_interprete+0x684>
     684:	be f7 00 00 00       	mov    $0xf7,%esi
     689:	bf 02 00 00 00       	mov    $0x2,%edi
     68e:	e8 00 00 00 00       	callq  693 <caml_interprete+0x693>
     693:	48 8d 35 00 00 00 00 	lea    0x0(%rip),%rsi        # 69a <caml_interprete+0x69a>
     69a:	48 8d 3d 00 00 00 00 	lea    0x0(%rip),%rdi        # 6a1 <caml_interprete+0x6a1>
     6a1:	48 89 30             	mov    %rsi,(%rax)
     6a4:	48 c7 40 08 05 00 00 	movq   $0x5,0x8(%rax)
     6ab:	00 
     6ac:	48 89 05 00 00 00 00 	mov    %rax,0x0(%rip)        # 6b3 <caml_interprete+0x6b3>
     6b3:	e8 00 00 00 00       	callq  6b8 <caml_interprete+0x6b8>
     6b8:	48 8d 3d 00 00 00 00 	lea    0x0(%rip),%rdi        # 6bf <caml_interprete+0x6bf>
     6bf:	48 c7 05 00 00 00 00 	movq   $0x1,0x0(%rip)        # 6ca <caml_interprete+0x6ca>
     6c6:	01 00 00 00 
     6ca:	e8 00 00 00 00       	callq  6cf <caml_interprete+0x6cf>
     6cf:	e8 00 00 00 00       	callq  6d4 <caml_interprete+0x6d4>
     6d4:	b8 01 00 00 00       	mov    $0x1,%eax
     6d9:	48 8b 8c 24 d8 02 00 	mov    0x2d8(%rsp),%rcx
     6e0:	00 
     6e1:	64 48 33 0c 25 28 00 	xor    %fs:0x28,%rcx
     6e8:	00 00 
     6ea:	0f 85 39 28 00 00    	jne    2f29 <caml_interprete+0x2f29>
     6f0:	48 81 c4 e8 02 00 00 	add    $0x2e8,%rsp
     6f7:	5b                   	pop    %rbx
     6f8:	5d                   	pop    %rbp
     6f9:	41 5c                	pop    %r12
     6fb:	41 5d                	pop    %r13
     6fd:	41 5e                	pop    %r14
     6ff:	41 5f                	pop    %r15
     701:	c3                   	retq   
     702:	66 0f 1f 44 00 00    	nopw   0x0(%rax,%rax,1)
     708:	48 8b 04 24          	mov    (%rsp),%rax
     70c:	48 8b 74 24 18       	mov    0x18(%rsp),%rsi
     711:	48 8b 4c 24 10       	mov    0x10(%rsp),%rcx
     716:	48 89 b0 d8 01 00 00 	mov    %rsi,0x1d8(%rax)
     71d:	48 89 88 e8 01 00 00 	mov    %rcx,0x1e8(%rax)
     724:	48 63 44 24 20       	movslq 0x20(%rsp),%rax
     729:	48 8b 77 10          	mov    0x10(%rdi),%rsi
     72d:	48 c1 e0 03          	shl    $0x3,%rax
     731:	48 29 c6             	sub    %rax,%rsi
     734:	4c 89 e8             	mov    %r13,%rax
     737:	48 89 37             	mov    %rsi,(%rdi)
     73a:	48 83 c8 02          	or     $0x2,%rax
     73e:	eb 99                	jmp    6d9 <caml_interprete+0x6d9>
     740:	f3 0f 1e fa          	endbr64 
     744:	4c 89 f8             	mov    %r15,%rax
     747:	48 8d 35 c9 02 00 00 	lea    0x2c9(%rip),%rsi        # a17 <caml_interprete+0xa17>
     74e:	4d 8b 6e 10          	mov    0x10(%r14),%r13
     752:	4d 8d 7f 04          	lea    0x4(%r15),%r15
     756:	48 63 00             	movslq (%rax),%rax
     759:	48 01 f0             	add    %rsi,%rax
     75c:	ff e0                	jmpq   *%rax
     75e:	f3 0f 1e fa          	endbr64 
     762:	4c 89 f8             	mov    %r15,%rax
     765:	48 8d 0d ab 02 00 00 	lea    0x2ab(%rip),%rcx        # a17 <caml_interprete+0xa17>
     76c:	4d 8b 6e 18          	mov    0x18(%r14),%r13
     770:	4d 8d 7f 04          	lea    0x4(%r15),%r15
     774:	48 63 00             	movslq (%rax),%rax
     777:	48 01 c8             	add    %rcx,%rax
     77a:	ff e0                	jmpq   *%rax
     77c:	f3 0f 1e fa          	endbr64 
     780:	4c 89 f8             	mov    %r15,%rax
     783:	48 8d 35 8d 02 00 00 	lea    0x28d(%rip),%rsi        # a17 <caml_interprete+0xa17>
     78a:	4d 8b 6e 20          	mov    0x20(%r14),%r13
     78e:	4d 8d 7f 04          	lea    0x4(%r15),%r15
     792:	48 63 00             	movslq (%rax),%rax
     795:	48 01 f0             	add    %rsi,%rax
     798:	ff e0                	jmpq   *%rax
     79a:	f3 0f 1e fa          	endbr64 
     79e:	4c 89 f8             	mov    %r15,%rax
     7a1:	48 8d 0d 6f 02 00 00 	lea    0x26f(%rip),%rcx        # a17 <caml_interprete+0xa17>
     7a8:	4d 8b 6e 28          	mov    0x28(%r14),%r13
     7ac:	4d 8d 7f 04          	lea    0x4(%r15),%r15
     7b0:	48 63 00             	movslq (%rax),%rax
     7b3:	48 01 c8             	add    %rcx,%rax
     7b6:	ff e0                	jmpq   *%rax
     7b8:	f3 0f 1e fa          	endbr64 
     7bc:	48 8b 04 24          	mov    (%rsp),%rax
     7c0:	4c 8b 40 20          	mov    0x20(%rax),%r8
     7c4:	49 8b 40 10          	mov    0x10(%r8),%rax
     7c8:	48 8b 50 18          	mov    0x18(%rax),%rdx
     7cc:	48 85 d2             	test   %rdx,%rdx
     7cf:	0f 84 8f 21 00 00    	je     2964 <caml_interprete+0x2964>
     7d5:	48 8b 05 00 00 00 00 	mov    0x0(%rip),%rax        # 7dc <caml_interprete+0x7dc>
     7dc:	4c 89 f9             	mov    %r15,%rcx
     7df:	64 48 8b 28          	mov    %fs:(%rax),%rbp
     7e3:	48 8b 45 08          	mov    0x8(%rbp),%rax
     7e7:	48 89 ee             	mov    %rbp,%rsi
     7ea:	48 83 e8 10          	sub    $0x10,%rax
     7ee:	48 89 45 08          	mov    %rax,0x8(%rbp)
     7f2:	48 8b 3e             	mov    (%rsi),%rdi
     7f5:	48 39 f8             	cmp    %rdi,%rax
     7f8:	0f 82 52 23 00 00    	jb     2b50 <caml_interprete+0x2b50>
     7fe:	48 8b 45 08          	mov    0x8(%rbp),%rax
     802:	4c 8b 1c 24          	mov    (%rsp),%r11
     806:	48 c7 00 f5 04 00 00 	movq   $0x4f5,(%rax)
     80d:	49 8d 46 e0          	lea    -0x20(%r14),%rax
     811:	48 8b 75 08          	mov    0x8(%rbp),%rsi
     815:	49 8b 8b d8 01 00 00 	mov    0x1d8(%r11),%rcx
     81c:	49 89 5e f0          	mov    %rbx,-0x10(%r14)
     820:	4d 89 7e e8          	mov    %r15,-0x18(%r14)
     824:	48 8d 7e 08          	lea    0x8(%rsi),%rdi
     828:	48 8d 4c 09 01       	lea    0x1(%rcx,%rcx,1),%rcx
     82d:	49 89 4e e0          	mov    %rcx,-0x20(%r14)
     831:	4b 8d 4c 24 01       	lea    0x1(%r12,%r12,1),%rcx
     836:	49 89 4e f8          	mov    %rcx,-0x8(%r14)
     83a:	49 8d 48 01          	lea    0x1(%r8),%rcx
     83e:	49 89 00             	mov    %rax,(%r8)
     841:	49 89 53 20          	mov    %rdx,0x20(%r11)
     845:	48 8b 02             	mov    (%rdx),%rax
     848:	49 8b 50 10          	mov    0x10(%r8),%rdx
     84c:	4c 8d 70 f8          	lea    -0x8(%rax),%r14
     850:	48 c7 42 18 00 00 00 	movq   $0x0,0x18(%rdx)
     857:	00 
     858:	48 89 4e 08          	mov    %rcx,0x8(%rsi)
     85c:	48 8b 10             	mov    (%rax),%rdx
     85f:	48 d1 fa             	sar    %rdx
     862:	49 89 93 d8 01 00 00 	mov    %rdx,0x1d8(%r11)
     869:	48 8b 50 08          	mov    0x8(%rax),%rdx
     86d:	4c 89 68 f8          	mov    %r13,-0x8(%rax)
     871:	48 89 38             	mov    %rdi,(%rax)
     874:	48 d1 fa             	sar    %rdx
     877:	48 89 48 08          	mov    %rcx,0x8(%rax)
     87b:	49 8b 40 10          	mov    0x10(%r8),%rax
     87f:	4c 8d 62 02          	lea    0x2(%rdx),%r12
     883:	4c 8b 68 10          	mov    0x10(%rax),%r13
     887:	4d 8b 7d 00          	mov    0x0(%r13),%r15
     88b:	4c 89 eb             	mov    %r13,%rbx
     88e:	e9 da f8 ff ff       	jmpq   16d <caml_interprete+0x16d>
     893:	f3 0f 1e fa          	endbr64 
     897:	48 8b 1c 24          	mov    (%rsp),%rbx
     89b:	49 63 17             	movslq (%r15),%rdx
     89e:	49 8b 3e             	mov    (%r14),%rdi
     8a1:	49 8b 76 08          	mov    0x8(%r14),%rsi
     8a5:	48 8b 4b 20          	mov    0x20(%rbx),%rcx
     8a9:	4d 8d 74 d6 f0       	lea    -0x10(%r14,%rdx,8),%r14
     8ae:	48 8b 93 d8 01 00 00 	mov    0x1d8(%rbx),%rdx
     8b5:	48 8b 41 10          	mov    0x10(%rcx),%rax
     8b9:	48 8d 54 12 01       	lea    0x1(%rdx,%rdx,1),%rdx
     8be:	48 8b 40 18          	mov    0x18(%rax),%rax
     8c2:	49 89 16             	mov    %rdx,(%r14)
     8c5:	4b 8d 54 24 01       	lea    0x1(%r12,%r12,1),%rdx
     8ca:	49 89 56 08          	mov    %rdx,0x8(%r14)
     8ce:	48 85 c0             	test   %rax,%rax
     8d1:	0f 84 2c 20 00 00    	je     2903 <caml_interprete+0x2903>
     8d7:	48 8b 1c 24          	mov    (%rsp),%rbx
     8db:	4c 89 31             	mov    %r14,(%rcx)
     8de:	48 89 43 20          	mov    %rax,0x20(%rbx)
     8e2:	48 8b 51 10          	mov    0x10(%rcx),%rdx
     8e6:	48 8b 00             	mov    (%rax),%rax
     8e9:	48 c7 42 18 00 00 00 	movq   $0x0,0x18(%rdx)
     8f0:	00 
     8f1:	48 8b 56 0f          	mov    0xf(%rsi),%rdx
     8f5:	48 8d 71 01          	lea    0x1(%rcx),%rsi
     8f9:	4c 8d 70 f8          	lea    -0x8(%rax),%r14
     8fd:	48 89 4a 18          	mov    %rcx,0x18(%rdx)
     901:	48 8b 10             	mov    (%rax),%rdx
     904:	48 d1 fa             	sar    %rdx
     907:	48 89 93 d8 01 00 00 	mov    %rdx,0x1d8(%rbx)
     90e:	48 8b 50 08          	mov    0x8(%rax),%rdx
     912:	4c 89 68 f8          	mov    %r13,-0x8(%rax)
     916:	48 89 38             	mov    %rdi,(%rax)
     919:	48 d1 fa             	sar    %rdx
     91c:	48 89 70 08          	mov    %rsi,0x8(%rax)
     920:	48 8b 41 10          	mov    0x10(%rcx),%rax
     924:	4c 8d 62 02          	lea    0x2(%rdx),%r12
     928:	4c 8b 68 10          	mov    0x10(%rax),%r13
     92c:	4d 8b 7d 00          	mov    0x0(%r13),%r15
     930:	4c 89 eb             	mov    %r13,%rbx
     933:	e9 35 f8 ff ff       	jmpq   16d <caml_interprete+0x16d>
     938:	f3 0f 1e fa          	endbr64 
     93c:	4c 89 f0             	mov    %r14,%rax
     93f:	48 8d 35 d1 00 00 00 	lea    0xd1(%rip),%rsi        # a17 <caml_interprete+0xa17>
     946:	4d 8d 76 f8          	lea    -0x8(%r14),%r14
     94a:	4c 89 68 f8          	mov    %r13,-0x8(%rax)
     94e:	4c 8b 28             	mov    (%rax),%r13
     951:	4c 89 f8             	mov    %r15,%rax
     954:	4d 8d 7f 04          	lea    0x4(%r15),%r15
     958:	48 63 00             	movslq (%rax),%rax
     95b:	48 01 f0             	add    %rsi,%rax
     95e:	ff e0                	jmpq   *%rax
     960:	f3 0f 1e fa          	endbr64 
     964:	4c 89 f0             	mov    %r14,%rax
     967:	48 8d 0d a9 00 00 00 	lea    0xa9(%rip),%rcx        # a17 <caml_interprete+0xa17>
     96e:	4d 8d 76 f8          	lea    -0x8(%r14),%r14
     972:	4c 89 68 f8          	mov    %r13,-0x8(%rax)
     976:	4c 8b 68 10          	mov    0x10(%rax),%r13
     97a:	4c 89 f8             	mov    %r15,%rax
     97d:	4d 8d 7f 04          	lea    0x4(%r15),%r15
     981:	48 63 00             	movslq (%rax),%rax
     984:	48 01 c8             	add    %rcx,%rax
     987:	ff e0                	jmpq   *%rax
     989:	f3 0f 1e fa          	endbr64 
     98d:	4c 89 f0             	mov    %r14,%rax
     990:	48 8d 35 80 00 00 00 	lea    0x80(%rip),%rsi        # a17 <caml_interprete+0xa17>
     997:	4d 8d 76 f8          	lea    -0x8(%r14),%r14
     99b:	4c 89 68 f8          	mov    %r13,-0x8(%rax)
     99f:	4c 8b 68 18          	mov    0x18(%rax),%r13
     9a3:	4c 89 f8             	mov    %r15,%rax
     9a6:	4d 8d 7f 04          	lea    0x4(%r15),%r15
     9aa:	48 63 00             	movslq (%rax),%rax
     9ad:	48 01 f0             	add    %rsi,%rax
     9b0:	ff e0                	jmpq   *%rax
     9b2:	f3 0f 1e fa          	endbr64 
     9b6:	4c 89 f0             	mov    %r14,%rax
     9b9:	48 8d 3d 57 00 00 00 	lea    0x57(%rip),%rdi        # a17 <caml_interprete+0xa17>
     9c0:	4d 8d 76 f8          	lea    -0x8(%r14),%r14
     9c4:	4c 89 68 f8          	mov    %r13,-0x8(%rax)
     9c8:	4c 8b 68 08          	mov    0x8(%rax),%r13
     9cc:	4c 89 f8             	mov    %r15,%rax
     9cf:	4d 8d 7f 04          	lea    0x4(%r15),%r15
     9d3:	48 63 00             	movslq (%rax),%rax
     9d6:	48 01 f8             	add    %rdi,%rax
     9d9:	ff e0                	jmpq   *%rax
     9db:	f3 0f 1e fa          	endbr64 
     9df:	4c 89 f8             	mov    %r15,%rax
     9e2:	48 8d 35 2e 00 00 00 	lea    0x2e(%rip),%rsi        # a17 <caml_interprete+0xa17>
     9e9:	4d 8b 6e 30          	mov    0x30(%r14),%r13
     9ed:	4d 8d 7f 04          	lea    0x4(%r15),%r15
     9f1:	48 63 00             	movslq (%rax),%rax
     9f4:	48 01 f0             	add    %rsi,%rax
     9f7:	ff e0                	jmpq   *%rax
     9f9:	f3 0f 1e fa          	endbr64 
     9fd:	4c 89 f8             	mov    %r15,%rax
     a00:	48 8d 0d 10 00 00 00 	lea    0x10(%rip),%rcx        # a17 <caml_interprete+0xa17>
     a07:	4d 8b 6e 38          	mov    0x38(%r14),%r13
     a0b:	4d 8d 7f 04          	lea    0x4(%r15),%r15
     a0f:	48 63 00             	movslq (%rax),%rax
     a12:	48 01 c8             	add    %rcx,%rax
     a15:	ff e0                	jmpq   *%rax
     a17:	f3 0f 1e fa          	endbr64 
     a1b:	4c 89 f8             	mov    %r15,%rax
     a1e:	48 8d 35 f2 ff ff ff 	lea    -0xe(%rip),%rsi        # a17 <caml_interprete+0xa17>
     a25:	4d 8b 2e             	mov    (%r14),%r13
     a28:	4d 8d 7f 04          	lea    0x4(%r15),%r15
     a2c:	48 63 00             	movslq (%rax),%rax
     a2f:	48 01 f0             	add    %rsi,%rax
     a32:	ff e0                	jmpq   *%rax
     a34:	f3 0f 1e fa          	endbr64 
     a38:	4c 89 f8             	mov    %r15,%rax
     a3b:	48 8d 0d d5 ff ff ff 	lea    -0x2b(%rip),%rcx        # a17 <caml_interprete+0xa17>
     a42:	4d 8b 6e 08          	mov    0x8(%r14),%r13
     a46:	4d 8d 7f 04          	lea    0x4(%r15),%r15
     a4a:	48 63 00             	movslq (%rax),%rax
     a4d:	48 01 c8             	add    %rcx,%rax
     a50:	ff e0                	jmpq   *%rax
     a52:	f3 0f 1e fa          	endbr64 
     a56:	4c 89 f8             	mov    %r15,%rax
     a59:	48 8d 3d b7 ff ff ff 	lea    -0x49(%rip),%rdi        # a17 <caml_interprete+0xa17>
     a60:	4c 8b 6b 10          	mov    0x10(%rbx),%r13
     a64:	4d 8d 7f 04          	lea    0x4(%r15),%r15
     a68:	48 63 00             	movslq (%rax),%rax
     a6b:	48 01 f8             	add    %rdi,%rax
     a6e:	ff e0                	jmpq   *%rax
     a70:	f3 0f 1e fa          	endbr64 
     a74:	4c 89 f8             	mov    %r15,%rax
     a77:	48 8d 0d 99 ff ff ff 	lea    -0x67(%rip),%rcx        # a17 <caml_interprete+0xa17>
     a7e:	4c 8b 6b 18          	mov    0x18(%rbx),%r13
     a82:	4d 8d 7f 04          	lea    0x4(%r15),%r15
     a86:	48 63 00             	movslq (%rax),%rax
     a89:	48 01 c8             	add    %rcx,%rax
     a8c:	ff e0                	jmpq   *%rax
     a8e:	f3 0f 1e fa          	endbr64 
     a92:	4c 89 f8             	mov    %r15,%rax
     a95:	48 8d 35 7b ff ff ff 	lea    -0x85(%rip),%rsi        # a17 <caml_interprete+0xa17>
     a9c:	4c 8b 6b 20          	mov    0x20(%rbx),%r13
     aa0:	4d 8d 7f 04          	lea    0x4(%r15),%r15
     aa4:	48 63 00             	movslq (%rax),%rax
     aa7:	48 01 f0             	add    %rsi,%rax
     aaa:	ff e0                	jmpq   *%rax
     aac:	f3 0f 1e fa          	endbr64 
     ab0:	4c 89 f0             	mov    %r14,%rax
     ab3:	48 8d 3d 5d ff ff ff 	lea    -0xa3(%rip),%rdi        # a17 <caml_interprete+0xa17>
     aba:	4d 8d 76 f8          	lea    -0x8(%r14),%r14
     abe:	4c 89 68 f8          	mov    %r13,-0x8(%rax)
     ac2:	4c 89 f8             	mov    %r15,%rax
     ac5:	4c 8b 6b 08          	mov    0x8(%rbx),%r13
     ac9:	4d 8d 7f 04          	lea    0x4(%r15),%r15
     acd:	48 63 00             	movslq (%rax),%rax
     ad0:	48 01 f8             	add    %rdi,%rax
     ad3:	ff e0                	jmpq   *%rax
     ad5:	f3 0f 1e fa          	endbr64 
     ad9:	4c 89 f0             	mov    %r14,%rax
     adc:	48 8d 0d 34 ff ff ff 	lea    -0xcc(%rip),%rcx        # a17 <caml_interprete+0xa17>
     ae3:	4d 8d 76 f8          	lea    -0x8(%r14),%r14
     ae7:	4c 89 68 f8          	mov    %r13,-0x8(%rax)
     aeb:	4c 89 f8             	mov    %r15,%rax
     aee:	4c 8b 6b 10          	mov    0x10(%rbx),%r13
     af2:	4d 8d 7f 04          	lea    0x4(%r15),%r15
     af6:	48 63 00             	movslq (%rax),%rax
     af9:	48 01 c8             	add    %rcx,%rax
     afc:	ff e0                	jmpq   *%rax
     afe:	f3 0f 1e fa          	endbr64 
     b02:	4c 89 f0             	mov    %r14,%rax
     b05:	48 8d 35 0b ff ff ff 	lea    -0xf5(%rip),%rsi        # a17 <caml_interprete+0xa17>
     b0c:	4d 8d 76 f8          	lea    -0x8(%r14),%r14
     b10:	4c 89 68 f8          	mov    %r13,-0x8(%rax)
     b14:	4c 89 f8             	mov    %r15,%rax
     b17:	4c 8b 6b 18          	mov    0x18(%rbx),%r13
     b1b:	4d 8d 7f 04          	lea    0x4(%r15),%r15
     b1f:	48 63 00             	movslq (%rax),%rax
     b22:	48 01 f0             	add    %rsi,%rax
     b25:	ff e0                	jmpq   *%rax
     b27:	f3 0f 1e fa          	endbr64 
     b2b:	4c 89 f0             	mov    %r14,%rax
     b2e:	48 8d 3d e2 fe ff ff 	lea    -0x11e(%rip),%rdi        # a17 <caml_interprete+0xa17>
     b35:	4d 8d 76 f8          	lea    -0x8(%r14),%r14
     b39:	4c 89 68 f8          	mov    %r13,-0x8(%rax)
     b3d:	4c 89 f8             	mov    %r15,%rax
     b40:	4c 8b 6b 20          	mov    0x20(%rbx),%r13
     b44:	4d 8d 7f 04          	lea    0x4(%r15),%r15
     b48:	48 63 00             	movslq (%rax),%rax
     b4b:	48 01 f8             	add    %rdi,%rax
     b4e:	ff e0                	jmpq   *%rax
     b50:	f3 0f 1e fa          	endbr64 
     b54:	4c 89 f0             	mov    %r14,%rax
     b57:	48 8d 3d b9 fe ff ff 	lea    -0x147(%rip),%rdi        # a17 <caml_interprete+0xa17>
     b5e:	4d 8d 76 f8          	lea    -0x8(%r14),%r14
     b62:	4c 89 68 f8          	mov    %r13,-0x8(%rax)
     b66:	4c 8b 68 20          	mov    0x20(%rax),%r13
     b6a:	4c 89 f8             	mov    %r15,%rax
     b6d:	4d 8d 7f 04          	lea    0x4(%r15),%r15
     b71:	48 63 00             	movslq (%rax),%rax
     b74:	48 01 f8             	add    %rdi,%rax
     b77:	ff e0                	jmpq   *%rax
     b79:	f3 0f 1e fa          	endbr64 
     b7d:	4c 89 f0             	mov    %r14,%rax
     b80:	48 8d 0d 90 fe ff ff 	lea    -0x170(%rip),%rcx        # a17 <caml_interprete+0xa17>
     b87:	4d 8d 76 f8          	lea    -0x8(%r14),%r14
     b8b:	4c 89 68 f8          	mov    %r13,-0x8(%rax)
     b8f:	4c 8b 68 28          	mov    0x28(%rax),%r13
     b93:	4c 89 f8             	mov    %r15,%rax
     b96:	4d 8d 7f 04          	lea    0x4(%r15),%r15
     b9a:	48 63 00             	movslq (%rax),%rax
     b9d:	48 01 c8             	add    %rcx,%rax
     ba0:	ff e0                	jmpq   *%rax
     ba2:	f3 0f 1e fa          	endbr64 
     ba6:	4c 89 f0             	mov    %r14,%rax
     ba9:	48 8d 35 67 fe ff ff 	lea    -0x199(%rip),%rsi        # a17 <caml_interprete+0xa17>
     bb0:	4d 8d 76 f8          	lea    -0x8(%r14),%r14
     bb4:	4c 89 68 f8          	mov    %r13,-0x8(%rax)
     bb8:	4c 8b 68 30          	mov    0x30(%rax),%r13
     bbc:	4c 89 f8             	mov    %r15,%rax
     bbf:	4d 8d 7f 04          	lea    0x4(%r15),%r15
     bc3:	48 63 00             	movslq (%rax),%rax
     bc6:	48 01 f0             	add    %rsi,%rax
     bc9:	ff e0                	jmpq   *%rax
     bcb:	f3 0f 1e fa          	endbr64 
     bcf:	4c 89 f8             	mov    %r15,%rax
     bd2:	4d 8d 7f 04          	lea    0x4(%r15),%r15
     bd6:	48 8d 0d 3a fe ff ff 	lea    -0x1c6(%rip),%rcx        # a17 <caml_interprete+0xa17>
     bdd:	48 63 00             	movslq (%rax),%rax
     be0:	4d 89 2c c6          	mov    %r13,(%r14,%rax,8)
     be4:	4c 89 f8             	mov    %r15,%rax
     be7:	41 bd 01 00 00 00    	mov    $0x1,%r13d
     bed:	4d 8d 7f 04          	lea    0x4(%r15),%r15
     bf1:	48 63 00             	movslq (%rax),%rax
     bf4:	48 01 c8             	add    %rcx,%rax
     bf7:	ff e0                	jmpq   *%rax
     bf9:	f3 0f 1e fa          	endbr64 
     bfd:	4c 89 f8             	mov    %r15,%rax
     c00:	48 8d 35 10 fe ff ff 	lea    -0x1f0(%rip),%rsi        # a17 <caml_interprete+0xa17>
     c07:	4c 8b 6b 08          	mov    0x8(%rbx),%r13
     c0b:	4d 8d 7f 04          	lea    0x4(%r15),%r15
     c0f:	48 63 00             	movslq (%rax),%rax
     c12:	48 01 f0             	add    %rsi,%rax
     c15:	ff e0                	jmpq   *%rax
     c17:	f3 0f 1e fa          	endbr64 
     c1b:	4c 89 f8             	mov    %r15,%rax
     c1e:	4d 8d 7f 04          	lea    0x4(%r15),%r15
     c22:	48 8d 3d ee fd ff ff 	lea    -0x212(%rip),%rdi        # a17 <caml_interprete+0xa17>
     c29:	48 63 00             	movslq (%rax),%rax
     c2c:	4d 8d 34 c6          	lea    (%r14,%rax,8),%r14
     c30:	4c 89 f8             	mov    %r15,%rax
     c33:	4d 8d 7f 04          	lea    0x4(%r15),%r15
     c37:	48 63 00             	movslq (%rax),%rax
     c3a:	48 01 f8             	add    %rdi,%rax
     c3d:	ff e0                	jmpq   *%rax
     c3f:	f3 0f 1e fa          	endbr64 
     c43:	49 8b 16             	mov    (%r14),%rdx
     c46:	49 d1 fd             	sar    %r13
     c49:	48 8d 0d c7 fd ff ff 	lea    -0x239(%rip),%rcx        # a17 <caml_interprete+0xa17>
     c50:	49 63 c5             	movslq %r13d,%rax
     c53:	48 8b 12             	mov    (%rdx),%rdx
     c56:	4c 8b 2c c2          	mov    (%rdx,%rax,8),%r13
     c5a:	4c 89 f8             	mov    %r15,%rax
     c5d:	4d 8d 7f 04          	lea    0x4(%r15),%r15
     c61:	48 63 00             	movslq (%rax),%rax
     c64:	48 01 c8             	add    %rcx,%rax
     c67:	ff e0                	jmpq   *%rax
     c69:	f3 0f 1e fa          	endbr64 
     c6d:	4c 89 f0             	mov    %r14,%rax
     c70:	49 8b 7d 00          	mov    0x0(%r13),%rdi
     c74:	4d 8d 76 f8          	lea    -0x8(%r14),%r14
     c78:	4c 89 68 f8          	mov    %r13,-0x8(%rax)
     c7c:	4c 89 f8             	mov    %r15,%rax
     c7f:	4d 8d 7f 04          	lea    0x4(%r15),%r15
     c83:	48 63 00             	movslq (%rax),%rax
     c86:	4d 89 fa             	mov    %r15,%r10
     c89:	49 89 f9             	mov    %rdi,%r9
     c8c:	4c 8d 44 00 01       	lea    0x1(%rax,%rax,1),%r8
     c91:	49 63 07             	movslq (%r15),%rax
     c94:	48 23 47 08          	and    0x8(%rdi),%rax
     c98:	48 01 f8             	add    %rdi,%rax
     c9b:	4c 3b 40 18          	cmp    0x18(%rax),%r8
     c9f:	0f 85 47 1a 00 00    	jne    26ec <caml_interprete+0x26ec>
     ca5:	4c 8b 68 10          	mov    0x10(%rax),%r13
     ca9:	4c 89 f8             	mov    %r15,%rax
     cac:	48 8d 35 64 fd ff ff 	lea    -0x29c(%rip),%rsi        # a17 <caml_interprete+0xa17>
     cb3:	4d 8d 7f 08          	lea    0x8(%r15),%r15
     cb7:	48 63 40 04          	movslq 0x4(%rax),%rax
     cbb:	48 01 f0             	add    %rsi,%rax
     cbe:	ff e0                	jmpq   *%rax
     cc0:	f3 0f 1e fa          	endbr64 
     cc4:	49 8b 06             	mov    (%r14),%rax
     cc7:	ba 03 00 00 00       	mov    $0x3,%edx
     ccc:	48 8b 38             	mov    (%rax),%rdi
     ccf:	8b 0f                	mov    (%rdi),%ecx
     cd1:	49 89 f8             	mov    %rdi,%r8
     cd4:	eb 21                	jmp    cf7 <caml_interprete+0xcf7>
     cd6:	66 2e 0f 1f 84 00 00 	nopw   %cs:0x0(%rax,%rax,1)
     cdd:	00 00 00 
     ce0:	8d 04 0a             	lea    (%rdx,%rcx,1),%eax
     ce3:	d1 f8                	sar    %eax
     ce5:	83 c8 01             	or     $0x1,%eax
     ce8:	48 63 f0             	movslq %eax,%rsi
     ceb:	4d 39 2c f0          	cmp    %r13,(%r8,%rsi,8)
     cef:	0f 8f bd 18 00 00    	jg     25b2 <caml_interprete+0x25b2>
     cf5:	89 c2                	mov    %eax,%edx
     cf7:	39 ca                	cmp    %ecx,%edx
     cf9:	7c e5                	jl     ce0 <caml_interprete+0xce0>
     cfb:	8d 42 ff             	lea    -0x1(%rdx),%eax
     cfe:	48 98                	cltq   
     d00:	4c 8b 2c c7          	mov    (%rdi,%rax,8),%r13
     d04:	4c 89 f8             	mov    %r15,%rax
     d07:	48 8d 3d 09 fd ff ff 	lea    -0x2f7(%rip),%rdi        # a17 <caml_interprete+0xa17>
     d0e:	4d 8d 7f 04          	lea    0x4(%r15),%r15
     d12:	48 63 00             	movslq (%rax),%rax
     d15:	48 01 f8             	add    %rdi,%rax
     d18:	ff e0                	jmpq   *%rax
     d1a:	f3 0f 1e fa          	endbr64 
     d1e:	48 83 2d 00 00 00 00 	subq   $0x1,0x0(%rip)        # d26 <caml_interprete+0xd26>
     d25:	01 
     d26:	75 34                	jne    d5c <caml_interprete+0xd5c>
     d28:	49 8d 47 fc          	lea    -0x4(%r15),%rax
     d2c:	4d 89 6e e0          	mov    %r13,-0x20(%r14)
     d30:	49 8d 56 e0          	lea    -0x20(%r14),%rdx
     d34:	31 ff                	xor    %edi,%edi
     d36:	49 89 46 e8          	mov    %rax,-0x18(%r14)
     d3a:	4b 8d 44 24 01       	lea    0x1(%r12,%r12,1),%rax
     d3f:	be 01 00 00 00       	mov    $0x1,%esi
     d44:	49 89 46 f8          	mov    %rax,-0x8(%r14)
     d48:	48 8b 04 24          	mov    (%rsp),%rax
     d4c:	49 89 5e f0          	mov    %rbx,-0x10(%r14)
     d50:	48 8b 40 20          	mov    0x20(%rax),%rax
     d54:	48 89 10             	mov    %rdx,(%rax)
     d57:	e8 00 00 00 00       	callq  d5c <caml_interprete+0xd5c>
     d5c:	49 8d 7f fc          	lea    -0x4(%r15),%rdi
     d60:	e8 00 00 00 00       	callq  d65 <caml_interprete+0xd65>
     d65:	48 8d 3d ab fc ff ff 	lea    -0x355(%rip),%rdi        # a17 <caml_interprete+0xa17>
     d6c:	48 98                	cltq   
     d6e:	48 01 f8             	add    %rdi,%rax
     d71:	ff e0                	jmpq   *%rax
     d73:	f3 0f 1e fa          	endbr64 
     d77:	49 8d 47 fc          	lea    -0x4(%r15),%rax
     d7b:	4d 89 6e e0          	mov    %r13,-0x20(%r14)
     d7f:	49 8d 56 e0          	lea    -0x20(%r14),%rdx
     d83:	be 01 00 00 00       	mov    $0x1,%esi
     d88:	49 89 46 e8          	mov    %rax,-0x18(%r14)
     d8c:	4b 8d 44 24 01       	lea    0x1(%r12,%r12,1),%rax
     d91:	bf 01 00 00 00       	mov    $0x1,%edi
     d96:	49 89 46 f8          	mov    %rax,-0x8(%r14)
     d9a:	48 8b 04 24          	mov    (%rsp),%rax
     d9e:	49 89 5e f0          	mov    %rbx,-0x10(%r14)
     da2:	48 8b 40 20          	mov    0x20(%rax),%rax
     da6:	48 89 10             	mov    %rdx,(%rax)
     da9:	e8 00 00 00 00       	callq  dae <caml_interprete+0xdae>
     dae:	49 8d 7f fc          	lea    -0x4(%r15),%rdi
     db2:	e8 00 00 00 00       	callq  db7 <caml_interprete+0xdb7>
     db7:	48 8d 0d 59 fc ff ff 	lea    -0x3a7(%rip),%rcx        # a17 <caml_interprete+0xa17>
     dbe:	48 98                	cltq   
     dc0:	48 01 c8             	add    %rcx,%rax
     dc3:	ff e0                	jmpq   *%rax
     dc5:	f3 0f 1e fa          	endbr64 
     dc9:	48 8b 0c 24          	mov    (%rsp),%rcx
     dcd:	4c 89 f0             	mov    %r14,%rax
     dd0:	49 8b 36             	mov    (%r14),%rsi
     dd3:	4d 8d 76 e8          	lea    -0x18(%r14),%r14
     dd7:	49 8b 7e 20          	mov    0x20(%r14),%rdi
     ddb:	48 8b 91 d8 01 00 00 	mov    0x1d8(%rcx),%rdx
     de2:	48 c7 40 f0 01 00 00 	movq   $0x1,-0x10(%rax)
     de9:	00 
     dea:	4c 89 78 f8          	mov    %r15,-0x8(%rax)
     dee:	48 8d 54 12 01       	lea    0x1(%rdx,%rdx,1),%rdx
     df3:	48 89 18             	mov    %rbx,(%rax)
     df6:	48 89 50 e8          	mov    %rdx,-0x18(%rax)
     dfa:	4b 8d 54 24 01       	lea    0x1(%r12,%r12,1),%rdx
     dff:	48 89 50 08          	mov    %rdx,0x8(%rax)
     e03:	49 8d 4d ff          	lea    -0x1(%r13),%rcx
     e07:	48 89 c8             	mov    %rcx,%rax
     e0a:	49 83 fd 01          	cmp    $0x1,%r13
     e0e:	0f 84 ce f7 ff ff    	je     5e2 <caml_interprete+0x5e2>
     e14:	0f 1f 40 00          	nopl   0x0(%rax)
     e18:	48 8b 50 10          	mov    0x10(%rax),%rdx
     e1c:	48 8b 42 18          	mov    0x18(%rdx),%rax
     e20:	48 85 c0             	test   %rax,%rax
     e23:	75 f3                	jne    e18 <caml_interprete+0xe18>
     e25:	48 8b 05 00 00 00 00 	mov    0x0(%rip),%rax        # e2c <caml_interprete+0xe2c>
     e2c:	48 8b 1c 24          	mov    (%rsp),%rbx
     e30:	49 89 f5             	mov    %rsi,%r13
     e33:	45 31 e4             	xor    %r12d,%r12d
     e36:	64 48 8b 00          	mov    %fs:(%rax),%rax
     e3a:	48 8b 40 20          	mov    0x20(%rax),%rax
     e3e:	48 89 42 18          	mov    %rax,0x18(%rdx)
     e42:	48 8b 43 20          	mov    0x20(%rbx),%rax
     e46:	4c 89 30             	mov    %r14,(%rax)
     e49:	48 89 4b 20          	mov    %rcx,0x20(%rbx)
     e4d:	4c 8b 31             	mov    (%rcx),%r14
     e50:	49 8b 06             	mov    (%r14),%rax
     e53:	48 d1 f8             	sar    %rax
     e56:	48 89 83 d8 01 00 00 	mov    %rax,0x1d8(%rbx)
     e5d:	48 89 f3             	mov    %rsi,%rbx
     e60:	49 89 3e             	mov    %rdi,(%r14)
     e63:	4c 8b 3e             	mov    (%rsi),%r15
     e66:	e9 02 f3 ff ff       	jmpq   16d <caml_interprete+0x16d>
     e6b:	f3 0f 1e fa          	endbr64 
     e6f:	49 63 07             	movslq (%r15),%rax
     e72:	49 8b 36             	mov    (%r14),%rsi
     e75:	49 8b 7e 08          	mov    0x8(%r14),%rdi
     e79:	4d 8d 74 c6 f0       	lea    -0x10(%r14,%rax,8),%r14
     e7e:	48 8b 04 24          	mov    (%rsp),%rax
     e82:	48 8b 80 d8 01 00 00 	mov    0x1d8(%rax),%rax
     e89:	48 8d 44 00 01       	lea    0x1(%rax,%rax,1),%rax
     e8e:	49 89 06             	mov    %rax,(%r14)
     e91:	4b 8d 44 24 01       	lea    0x1(%r12,%r12,1),%rax
     e96:	49 89 46 08          	mov    %rax,0x8(%r14)
     e9a:	e9 64 ff ff ff       	jmpq   e03 <caml_interprete+0xe03>
     e9f:	f3 0f 1e fa          	endbr64 
     ea3:	49 63 17             	movslq (%r15),%rdx
     ea6:	48 8b 05 00 00 00 00 	mov    0x0(%rip),%rax        # ead <caml_interprete+0xead>
     ead:	4c 89 ee             	mov    %r13,%rsi
     eb0:	41 bd 01 00 00 00    	mov    $0x1,%r13d
     eb6:	48 8d 3c d0          	lea    (%rax,%rdx,8),%rdi
     eba:	e8 00 00 00 00       	callq  ebf <caml_interprete+0xebf>
     ebf:	4c 89 f8             	mov    %r15,%rax
     ec2:	48 8d 3d 4e fb ff ff 	lea    -0x4b2(%rip),%rdi        # a17 <caml_interprete+0xa17>
     ec9:	4d 8d 7f 08          	lea    0x8(%r15),%r15
     ecd:	48 63 40 04          	movslq 0x4(%rax),%rax
     ed1:	48 01 f8             	add    %rdi,%rax
     ed4:	ff e0                	jmpq   *%rax
     ed6:	f3 0f 1e fa          	endbr64 
     eda:	48 8b 04 24          	mov    (%rsp),%rax
     ede:	48 8b 4c 24 10       	mov    0x10(%rsp),%rcx
     ee3:	48 8b 74 24 18       	mov    0x18(%rsp),%rsi
     ee8:	48 89 88 e8 01 00 00 	mov    %rcx,0x1e8(%rax)
     eef:	48 89 b0 d8 01 00 00 	mov    %rsi,0x1d8(%rax)
     ef6:	48 8b 40 20          	mov    0x20(%rax),%rax
     efa:	4c 89 30             	mov    %r14,(%rax)
     efd:	4c 89 e8             	mov    %r13,%rax
     f00:	e9 d4 f7 ff ff       	jmpq   6d9 <caml_interprete+0x6d9>
     f05:	f3 0f 1e fa          	endbr64 
     f09:	4c 89 f0             	mov    %r14,%rax
     f0c:	48 8d 3d 04 fb ff ff 	lea    -0x4fc(%rip),%rdi        # a17 <caml_interprete+0xa17>
     f13:	4d 8d 76 08          	lea    0x8(%r14),%r14
     f17:	4c 39 28             	cmp    %r13,(%rax)
     f1a:	0f 9d c0             	setge  %al
     f1d:	0f b6 c0             	movzbl %al,%eax
     f20:	4c 8d 6c 00 01       	lea    0x1(%rax,%rax,1),%r13
     f25:	4c 89 f8             	mov    %r15,%rax
     f28:	4d 8d 7f 04          	lea    0x4(%r15),%r15
     f2c:	48 63 00             	movslq (%rax),%rax
     f2f:	48 01 f8             	add    %rdi,%rax
     f32:	ff e0                	jmpq   *%rax
     f34:	f3 0f 1e fa          	endbr64 
     f38:	4c 89 f0             	mov    %r14,%rax
     f3b:	48 8d 0d d5 fa ff ff 	lea    -0x52b(%rip),%rcx        # a17 <caml_interprete+0xa17>
     f42:	4d 8d 76 08          	lea    0x8(%r14),%r14
     f46:	4c 39 28             	cmp    %r13,(%rax)
     f49:	0f 9c c0             	setl   %al
     f4c:	0f b6 c0             	movzbl %al,%eax
     f4f:	4c 8d 6c 00 01       	lea    0x1(%rax,%rax,1),%r13
     f54:	4c 89 f8             	mov    %r15,%rax
     f57:	4d 8d 7f 04          	lea    0x4(%r15),%r15
     f5b:	48 63 00             	movslq (%rax),%rax
     f5e:	48 01 c8             	add    %rcx,%rax
     f61:	ff e0                	jmpq   *%rax
     f63:	f3 0f 1e fa          	endbr64 
     f67:	4c 89 f0             	mov    %r14,%rax
     f6a:	48 8d 35 a6 fa ff ff 	lea    -0x55a(%rip),%rsi        # a17 <caml_interprete+0xa17>
     f71:	4d 8d 76 08          	lea    0x8(%r14),%r14
     f75:	4c 39 28             	cmp    %r13,(%rax)
     f78:	0f 9e c0             	setle  %al
     f7b:	0f b6 c0             	movzbl %al,%eax
     f7e:	4c 8d 6c 00 01       	lea    0x1(%rax,%rax,1),%r13
     f83:	4c 89 f8             	mov    %r15,%rax
     f86:	4d 8d 7f 04          	lea    0x4(%r15),%r15
     f8a:	48 63 00             	movslq (%rax),%rax
     f8d:	48 01 f0             	add    %rsi,%rax
     f90:	ff e0                	jmpq   *%rax
     f92:	f3 0f 1e fa          	endbr64 
     f96:	4c 89 f0             	mov    %r14,%rax
     f99:	48 8d 3d 77 fa ff ff 	lea    -0x589(%rip),%rdi        # a17 <caml_interprete+0xa17>
     fa0:	4d 8d 76 08          	lea    0x8(%r14),%r14
     fa4:	4c 3b 28             	cmp    (%rax),%r13
     fa7:	4c 89 f8             	mov    %r15,%rax
     faa:	4d 8d 7f 04          	lea    0x4(%r15),%r15
     fae:	48 63 00             	movslq (%rax),%rax
     fb1:	4d 19 ed             	sbb    %r13,%r13
     fb4:	41 83 e5 02          	and    $0x2,%r13d
     fb8:	48 01 f8             	add    %rdi,%rax
     fbb:	49 83 c5 01          	add    $0x1,%r13
     fbf:	ff e0                	jmpq   *%rax
     fc1:	f3 0f 1e fa          	endbr64 
     fc5:	4c 89 f0             	mov    %r14,%rax
     fc8:	48 8d 0d 48 fa ff ff 	lea    -0x5b8(%rip),%rcx        # a17 <caml_interprete+0xa17>
     fcf:	4d 8d 76 08          	lea    0x8(%r14),%r14
     fd3:	4c 3b 28             	cmp    (%rax),%r13
     fd6:	4c 89 f8             	mov    %r15,%rax
     fd9:	4d 8d 7f 04          	lea    0x4(%r15),%r15
     fdd:	48 63 00             	movslq (%rax),%rax
     fe0:	4d 19 ed             	sbb    %r13,%r13
     fe3:	49 83 e5 fe          	and    $0xfffffffffffffffe,%r13
     fe7:	48 01 c8             	add    %rcx,%rax
     fea:	49 83 c5 03          	add    $0x3,%r13
     fee:	ff e0                	jmpq   *%rax
     ff0:	f3 0f 1e fa          	endbr64 
     ff4:	4c 89 e8             	mov    %r13,%rax
     ff7:	49 63 0f             	movslq (%r15),%rcx
     ffa:	49 8d 77 04          	lea    0x4(%r15),%rsi
     ffe:	49 8d 57 08          	lea    0x8(%r15),%rdx
    1002:	48 d1 f8             	sar    %rax
    1005:	48 39 c1             	cmp    %rax,%rcx
    1008:	75 08                	jne    1012 <caml_interprete+0x1012>
    100a:	49 63 47 04          	movslq 0x4(%r15),%rax
    100e:	48 8d 14 86          	lea    (%rsi,%rax,4),%rdx
    1012:	48 63 02             	movslq (%rdx),%rax
    1015:	48 8d 35 fb f9 ff ff 	lea    -0x605(%rip),%rsi        # a17 <caml_interprete+0xa17>
    101c:	4c 8d 7a 04          	lea    0x4(%rdx),%r15
    1020:	48 01 f0             	add    %rsi,%rax
    1023:	ff e0                	jmpq   *%rax
    1025:	f3 0f 1e fa          	endbr64 
    1029:	4c 89 e8             	mov    %r13,%rax
    102c:	49 63 0f             	movslq (%r15),%rcx
    102f:	49 8d 77 04          	lea    0x4(%r15),%rsi
    1033:	49 8d 57 08          	lea    0x8(%r15),%rdx
    1037:	48 d1 f8             	sar    %rax
    103a:	48 39 c1             	cmp    %rax,%rcx
    103d:	74 08                	je     1047 <caml_interprete+0x1047>
    103f:	49 63 47 04          	movslq 0x4(%r15),%rax
    1043:	48 8d 14 86          	lea    (%rsi,%rax,4),%rdx
    1047:	48 63 02             	movslq (%rdx),%rax
    104a:	48 8d 3d c6 f9 ff ff 	lea    -0x63a(%rip),%rdi        # a17 <caml_interprete+0xa17>
    1051:	4c 8d 7a 04          	lea    0x4(%rdx),%r15
    1055:	48 01 f8             	add    %rdi,%rax
    1058:	ff e0                	jmpq   *%rax
    105a:	f3 0f 1e fa          	endbr64 
    105e:	4c 89 e8             	mov    %r13,%rax
    1061:	49 63 0f             	movslq (%r15),%rcx
    1064:	49 8d 77 04          	lea    0x4(%r15),%rsi
    1068:	49 8d 57 08          	lea    0x8(%r15),%rdx
    106c:	48 d1 f8             	sar    %rax
    106f:	48 39 c1             	cmp    %rax,%rcx
    1072:	7d 08                	jge    107c <caml_interprete+0x107c>
    1074:	49 63 47 04          	movslq 0x4(%r15),%rax
    1078:	48 8d 14 86          	lea    (%rsi,%rax,4),%rdx
    107c:	48 63 02             	movslq (%rdx),%rax
    107f:	48 8d 0d 91 f9 ff ff 	lea    -0x66f(%rip),%rcx        # a17 <caml_interprete+0xa17>
    1086:	4c 8d 7a 04          	lea    0x4(%rdx),%r15
    108a:	48 01 c8             	add    %rcx,%rax
    108d:	ff e0                	jmpq   *%rax
    108f:	f3 0f 1e fa          	endbr64 
    1093:	4c 89 e8             	mov    %r13,%rax
    1096:	49 63 0f             	movslq (%r15),%rcx
    1099:	49 8d 77 04          	lea    0x4(%r15),%rsi
    109d:	49 8d 57 08          	lea    0x8(%r15),%rdx
    10a1:	48 d1 f8             	sar    %rax
    10a4:	48 39 c1             	cmp    %rax,%rcx
    10a7:	7f 08                	jg     10b1 <caml_interprete+0x10b1>
    10a9:	49 63 47 04          	movslq 0x4(%r15),%rax
    10ad:	48 8d 14 86          	lea    (%rsi,%rax,4),%rdx
    10b1:	48 63 02             	movslq (%rdx),%rax
    10b4:	48 8d 35 5c f9 ff ff 	lea    -0x6a4(%rip),%rsi        # a17 <caml_interprete+0xa17>
    10bb:	4c 8d 7a 04          	lea    0x4(%rdx),%r15
    10bf:	48 01 f0             	add    %rsi,%rax
    10c2:	ff e0                	jmpq   *%rax
    10c4:	f3 0f 1e fa          	endbr64 
    10c8:	4c 89 e8             	mov    %r13,%rax
    10cb:	49 63 0f             	movslq (%r15),%rcx
    10ce:	49 8d 77 04          	lea    0x4(%r15),%rsi
    10d2:	49 8d 57 08          	lea    0x8(%r15),%rdx
    10d6:	48 d1 f8             	sar    %rax
    10d9:	48 39 c1             	cmp    %rax,%rcx
    10dc:	7e 08                	jle    10e6 <caml_interprete+0x10e6>
    10de:	49 63 47 04          	movslq 0x4(%r15),%rax
    10e2:	48 8d 14 86          	lea    (%rsi,%rax,4),%rdx
    10e6:	48 63 02             	movslq (%rdx),%rax
    10e9:	48 8d 3d 27 f9 ff ff 	lea    -0x6d9(%rip),%rdi        # a17 <caml_interprete+0xa17>
    10f0:	4c 8d 7a 04          	lea    0x4(%rdx),%r15
    10f4:	48 01 f8             	add    %rdi,%rax
    10f7:	ff e0                	jmpq   *%rax
    10f9:	f3 0f 1e fa          	endbr64 
    10fd:	4c 89 e8             	mov    %r13,%rax
    1100:	49 63 0f             	movslq (%r15),%rcx
    1103:	49 8d 77 04          	lea    0x4(%r15),%rsi
    1107:	49 8d 57 08          	lea    0x8(%r15),%rdx
    110b:	48 d1 f8             	sar    %rax
    110e:	48 39 c1             	cmp    %rax,%rcx
    1111:	7c 08                	jl     111b <caml_interprete+0x111b>
    1113:	49 63 47 04          	movslq 0x4(%r15),%rax
    1117:	48 8d 14 86          	lea    (%rsi,%rax,4),%rdx
    111b:	48 63 02             	movslq (%rdx),%rax
    111e:	48 8d 0d f2 f8 ff ff 	lea    -0x70e(%rip),%rcx        # a17 <caml_interprete+0xa17>
    1125:	4c 8d 7a 04          	lea    0x4(%rdx),%r15
    1129:	48 01 c8             	add    %rcx,%rax
    112c:	ff e0                	jmpq   *%rax
    112e:	f3 0f 1e fa          	endbr64 
    1132:	4c 89 e8             	mov    %r13,%rax
    1135:	49 63 0f             	movslq (%r15),%rcx
    1138:	49 8d 77 04          	lea    0x4(%r15),%rsi
    113c:	49 8d 57 08          	lea    0x8(%r15),%rdx
    1140:	48 d1 f8             	sar    %rax
    1143:	48 39 c1             	cmp    %rax,%rcx
    1146:	73 08                	jae    1150 <caml_interprete+0x1150>
    1148:	49 63 47 04          	movslq 0x4(%r15),%rax
    114c:	48 8d 14 86          	lea    (%rsi,%rax,4),%rdx
    1150:	48 63 02             	movslq (%rdx),%rax
    1153:	48 8d 35 bd f8 ff ff 	lea    -0x743(%rip),%rsi        # a17 <caml_interprete+0xa17>
    115a:	4c 8d 7a 04          	lea    0x4(%rdx),%r15
    115e:	48 01 f0             	add    %rsi,%rax
    1161:	ff e0                	jmpq   *%rax
    1163:	f3 0f 1e fa          	endbr64 
    1167:	4c 89 e8             	mov    %r13,%rax
    116a:	49 63 0f             	movslq (%r15),%rcx
    116d:	49 8d 77 04          	lea    0x4(%r15),%rsi
    1171:	49 8d 57 08          	lea    0x8(%r15),%rdx
    1175:	48 d1 f8             	sar    %rax
    1178:	48 39 c1             	cmp    %rax,%rcx
    117b:	72 08                	jb     1185 <caml_interprete+0x1185>
    117d:	49 63 47 04          	movslq 0x4(%r15),%rax
    1181:	48 8d 14 86          	lea    (%rsi,%rax,4),%rdx
    1185:	48 63 02             	movslq (%rdx),%rax
    1188:	48 8d 3d 88 f8 ff ff 	lea    -0x778(%rip),%rdi        # a17 <caml_interprete+0xa17>
    118f:	4c 8d 7a 04          	lea    0x4(%rdx),%r15
    1193:	48 01 f8             	add    %rdi,%rax
    1196:	ff e0                	jmpq   *%rax
    1198:	f3 0f 1e fa          	endbr64 
    119c:	41 8b 07             	mov    (%r15),%eax
    119f:	48 8d 0d 71 f8 ff ff 	lea    -0x78f(%rip),%rcx        # a17 <caml_interprete+0xa17>
    11a6:	01 c0                	add    %eax,%eax
    11a8:	48 98                	cltq   
    11aa:	49 01 c5             	add    %rax,%r13
    11ad:	4c 89 f8             	mov    %r15,%rax
    11b0:	4d 8d 7f 08          	lea    0x8(%r15),%r15
    11b4:	48 63 40 04          	movslq 0x4(%rax),%rax
    11b8:	48 01 c8             	add    %rcx,%rax
    11bb:	ff e0                	jmpq   *%rax
    11bd:	f3 0f 1e fa          	endbr64 
    11c1:	41 8b 07             	mov    (%r15),%eax
    11c4:	48 8d 35 4c f8 ff ff 	lea    -0x7b4(%rip),%rsi        # a17 <caml_interprete+0xa17>
    11cb:	01 c0                	add    %eax,%eax
    11cd:	48 98                	cltq   
    11cf:	49 01 45 00          	add    %rax,0x0(%r13)
    11d3:	4c 89 f8             	mov    %r15,%rax
    11d6:	41 bd 01 00 00 00    	mov    $0x1,%r13d
    11dc:	48 63 40 04          	movslq 0x4(%rax),%rax
    11e0:	4d 8d 7f 08          	lea    0x8(%r15),%r15
    11e4:	48 01 f0             	add    %rsi,%rax
    11e7:	ff e0                	jmpq   *%rax
    11e9:	f3 0f 1e fa          	endbr64 
    11ed:	4c 89 f8             	mov    %r15,%rax
    11f0:	4d 01 ed             	add    %r13,%r13
    11f3:	48 8d 3d 1d f8 ff ff 	lea    -0x7e3(%rip),%rdi        # a17 <caml_interprete+0xa17>
    11fa:	48 63 00             	movslq (%rax),%rax
    11fd:	41 83 e5 02          	and    $0x2,%r13d
    1201:	4d 8d 7f 04          	lea    0x4(%r15),%r15
    1205:	49 83 c5 01          	add    $0x1,%r13
    1209:	48 01 f8             	add    %rdi,%rax
    120c:	ff e0                	jmpq   *%rax
    120e:	f3 0f 1e fa          	endbr64 
    1212:	49 63 17             	movslq (%r15),%rdx
    1215:	4c 89 f8             	mov    %r15,%rax
    1218:	4d 8d 7f 08          	lea    0x8(%r15),%r15
    121c:	44 8b 50 04          	mov    0x4(%rax),%r10d
    1220:	48 81 fa 00 01 00 00 	cmp    $0x100,%rdx
    1227:	0f 87 1d 16 00 00    	ja     284a <caml_interprete+0x284a>
    122d:	48 8b 05 00 00 00 00 	mov    0x0(%rip),%rax        # 1234 <caml_interprete+0x1234>
    1234:	48 c7 c1 f8 ff ff ff 	mov    $0xfffffffffffffff8,%rcx
    123b:	4c 89 fe             	mov    %r15,%rsi
    123e:	64 48 8b 28          	mov    %fs:(%rax),%rbp
    1242:	48 8d 04 d5 00 00 00 	lea    0x0(,%rdx,8),%rax
    1249:	00 
    124a:	48 29 c1             	sub    %rax,%rcx
    124d:	48 83 c0 08          	add    $0x8,%rax
    1251:	48 8b 7d 08          	mov    0x8(%rbp),%rdi
    1255:	49 89 e8             	mov    %rbp,%r8
    1258:	48 01 cf             	add    %rcx,%rdi
    125b:	48 89 7d 08          	mov    %rdi,0x8(%rbp)
    125f:	4d 8b 08             	mov    (%r8),%r9
    1262:	4c 39 cf             	cmp    %r9,%rdi
    1265:	0f 82 6d 19 00 00    	jb     2bd8 <caml_interprete+0x2bd8>
    126b:	48 89 d0             	mov    %rdx,%rax
    126e:	48 8b 4d 08          	mov    0x8(%rbp),%rcx
    1272:	44 89 d6             	mov    %r10d,%esi
    1275:	48 c1 e0 0a          	shl    $0xa,%rax
    1279:	48 01 f0             	add    %rsi,%rax
    127c:	48 89 01             	mov    %rax,(%rcx)
    127f:	48 8b 75 08          	mov    0x8(%rbp),%rsi
    1283:	48 8d 46 08          	lea    0x8(%rsi),%rax
    1287:	4c 89 6e 08          	mov    %r13,0x8(%rsi)
    128b:	48 89 44 24 50       	mov    %rax,0x50(%rsp)
    1290:	48 83 fa 01          	cmp    $0x1,%rdx
    1294:	76 24                	jbe    12ba <caml_interprete+0x12ba>
    1296:	b8 01 00 00 00       	mov    $0x1,%eax
    129b:	0f 1f 44 00 00       	nopl   0x0(%rax,%rax,1)
    12a0:	49 8b 4c c6 f8       	mov    -0x8(%r14,%rax,8),%rcx
    12a5:	48 89 4c c6 08       	mov    %rcx,0x8(%rsi,%rax,8)
    12aa:	48 89 c1             	mov    %rax,%rcx
    12ad:	48 83 c0 01          	add    $0x1,%rax
    12b1:	48 39 c2             	cmp    %rax,%rdx
    12b4:	75 ea                	jne    12a0 <caml_interprete+0x12a0>
    12b6:	4d 8d 34 ce          	lea    (%r14,%rcx,8),%r14
    12ba:	4c 89 f8             	mov    %r15,%rax
    12bd:	48 8d 0d 53 f7 ff ff 	lea    -0x8ad(%rip),%rcx        # a17 <caml_interprete+0xa17>
    12c4:	4c 8b 6c 24 50       	mov    0x50(%rsp),%r13
    12c9:	4d 8d 7f 04          	lea    0x4(%r15),%r15
    12cd:	48 63 00             	movslq (%rax),%rax
    12d0:	48 01 c8             	add    %rcx,%rax
    12d3:	ff e0                	jmpq   *%rax
    12d5:	f3 0f 1e fa          	endbr64 
    12d9:	4c 89 f8             	mov    %r15,%rax
    12dc:	4d 8d 7f 04          	lea    0x4(%r15),%r15
    12e0:	8b 38                	mov    (%rax),%edi
    12e2:	48 8b 05 00 00 00 00 	mov    0x0(%rip),%rax        # 12e9 <caml_interprete+0x12e9>
    12e9:	4c 89 f9             	mov    %r15,%rcx
    12ec:	64 48 8b 28          	mov    %fs:(%rax),%rbp
    12f0:	48 8b 45 08          	mov    0x8(%rbp),%rax
    12f4:	48 89 ee             	mov    %rbp,%rsi
    12f7:	48 83 e8 10          	sub    $0x10,%rax
    12fb:	48 89 45 08          	mov    %rax,0x8(%rbp)
    12ff:	48 8b 16             	mov    (%rsi),%rdx
    1302:	48 39 d0             	cmp    %rdx,%rax
    1305:	0f 82 59 17 00 00    	jb     2a64 <caml_interprete+0x2a64>
    130b:	48 8b 55 08          	mov    0x8(%rbp),%rdx
    130f:	89 f8                	mov    %edi,%eax
    1311:	48 8d 35 ff f6 ff ff 	lea    -0x901(%rip),%rsi        # a17 <caml_interprete+0xa17>
    1318:	48 05 00 04 00 00    	add    $0x400,%rax
    131e:	48 89 02             	mov    %rax,(%rdx)
    1321:	48 8b 45 08          	mov    0x8(%rbp),%rax
    1325:	4c 89 68 08          	mov    %r13,0x8(%rax)
    1329:	4c 8d 68 08          	lea    0x8(%rax),%r13
    132d:	4c 89 f8             	mov    %r15,%rax
    1330:	4d 8d 7f 04          	lea    0x4(%r15),%r15
    1334:	48 63 00             	movslq (%rax),%rax
    1337:	48 01 f0             	add    %rsi,%rax
    133a:	ff e0                	jmpq   *%rax
    133c:	f3 0f 1e fa          	endbr64 
    1340:	4c 89 f8             	mov    %r15,%rax
    1343:	4d 8d 7f 04          	lea    0x4(%r15),%r15
    1347:	8b 38                	mov    (%rax),%edi
    1349:	48 8b 05 00 00 00 00 	mov    0x0(%rip),%rax        # 1350 <caml_interprete+0x1350>
    1350:	4c 89 f9             	mov    %r15,%rcx
    1353:	64 48 8b 28          	mov    %fs:(%rax),%rbp
    1357:	48 8b 45 08          	mov    0x8(%rbp),%rax
    135b:	48 89 ee             	mov    %rbp,%rsi
    135e:	48 8d 50 e8          	lea    -0x18(%rax),%rdx
    1362:	48 89 55 08          	mov    %rdx,0x8(%rbp)
    1366:	48 8b 06             	mov    (%rsi),%rax
    1369:	48 39 c2             	cmp    %rax,%rdx
    136c:	0f 82 68 17 00 00    	jb     2ada <caml_interprete+0x2ada>
    1372:	48 8b 55 08          	mov    0x8(%rbp),%rdx
    1376:	89 f8                	mov    %edi,%eax
    1378:	48 8d 0d 98 f6 ff ff 	lea    -0x968(%rip),%rcx        # a17 <caml_interprete+0xa17>
    137f:	49 83 c6 08          	add    $0x8,%r14
    1383:	48 05 00 08 00 00    	add    $0x800,%rax
    1389:	48 89 02             	mov    %rax,(%rdx)
    138c:	48 8b 55 08          	mov    0x8(%rbp),%rdx
    1390:	4c 89 6a 08          	mov    %r13,0x8(%rdx)
    1394:	48 8d 42 08          	lea    0x8(%rdx),%rax
    1398:	49 8b 56 f8          	mov    -0x8(%r14),%rdx
    139c:	49 89 c5             	mov    %rax,%r13
    139f:	48 89 50 08          	mov    %rdx,0x8(%rax)
    13a3:	4c 89 f8             	mov    %r15,%rax
    13a6:	4d 8d 7f 04          	lea    0x4(%r15),%r15
    13aa:	48 63 00             	movslq (%rax),%rax
    13ad:	48 01 c8             	add    %rcx,%rax
    13b0:	ff e0                	jmpq   *%rax
    13b2:	f3 0f 1e fa          	endbr64 
    13b6:	4c 89 f8             	mov    %r15,%rax
    13b9:	4d 8d 7f 04          	lea    0x4(%r15),%r15
    13bd:	8b 38                	mov    (%rax),%edi
    13bf:	48 8b 05 00 00 00 00 	mov    0x0(%rip),%rax        # 13c6 <caml_interprete+0x13c6>
    13c6:	4c 89 f9             	mov    %r15,%rcx
    13c9:	64 48 8b 28          	mov    %fs:(%rax),%rbp
    13cd:	48 8b 45 08          	mov    0x8(%rbp),%rax
    13d1:	48 89 ee             	mov    %rbp,%rsi
    13d4:	48 8d 50 e0          	lea    -0x20(%rax),%rdx
    13d8:	48 89 55 08          	mov    %rdx,0x8(%rbp)
    13dc:	48 8b 06             	mov    (%rsi),%rax
    13df:	48 39 c2             	cmp    %rax,%rdx
    13e2:	0f 82 06 16 00 00    	jb     29ee <caml_interprete+0x29ee>
    13e8:	48 8b 55 08          	mov    0x8(%rbp),%rdx
    13ec:	89 f8                	mov    %edi,%eax
    13ee:	48 8d 35 22 f6 ff ff 	lea    -0x9de(%rip),%rsi        # a17 <caml_interprete+0xa17>
    13f5:	49 83 c6 10          	add    $0x10,%r14
    13f9:	48 05 00 0c 00 00    	add    $0xc00,%rax
    13ff:	48 89 02             	mov    %rax,(%rdx)
    1402:	48 8b 55 08          	mov    0x8(%rbp),%rdx
    1406:	4c 89 6a 08          	mov    %r13,0x8(%rdx)
    140a:	48 8d 42 08          	lea    0x8(%rdx),%rax
    140e:	49 8b 56 f0          	mov    -0x10(%r14),%rdx
    1412:	49 89 c5             	mov    %rax,%r13
    1415:	48 89 50 08          	mov    %rdx,0x8(%rax)
    1419:	49 8b 56 f8          	mov    -0x8(%r14),%rdx
    141d:	48 89 50 10          	mov    %rdx,0x10(%rax)
    1421:	4c 89 f8             	mov    %r15,%rax
    1424:	4d 8d 7f 04          	lea    0x4(%r15),%r15
    1428:	48 63 00             	movslq (%rax),%rax
    142b:	48 01 f0             	add    %rsi,%rax
    142e:	ff e0                	jmpq   *%rax
    1430:	f3 0f 1e fa          	endbr64 
    1434:	4c 89 f8             	mov    %r15,%rax
    1437:	4d 8d 7f 04          	lea    0x4(%r15),%r15
    143b:	48 63 28             	movslq (%rax),%rbp
    143e:	48 81 fd 00 01 00 00 	cmp    $0x100,%rbp
    1445:	0f 87 dd 13 00 00    	ja     2828 <caml_interprete+0x2828>
    144b:	48 8b 05 00 00 00 00 	mov    0x0(%rip),%rax        # 1452 <caml_interprete+0x1452>
    1452:	48 c7 c2 f8 ff ff ff 	mov    $0xfffffffffffffff8,%rdx
    1459:	4c 89 fe             	mov    %r15,%rsi
    145c:	64 4c 8b 08          	mov    %fs:(%rax),%r9
    1460:	48 8d 04 ed 00 00 00 	lea    0x0(,%rbp,8),%rax
    1467:	00 
    1468:	48 29 c2             	sub    %rax,%rdx
    146b:	48 83 c0 08          	add    $0x8,%rax
    146f:	49 8b 49 08          	mov    0x8(%r9),%rcx
    1473:	4c 89 cf             	mov    %r9,%rdi
    1476:	48 01 d1             	add    %rdx,%rcx
    1479:	49 89 49 08          	mov    %rcx,0x8(%r9)
    147d:	4c 8b 07             	mov    (%rdi),%r8
    1480:	4c 39 c1             	cmp    %r8,%rcx
    1483:	0f 82 f5 17 00 00    	jb     2c7e <caml_interprete+0x2c7e>
    1489:	48 89 e8             	mov    %rbp,%rax
    148c:	49 8b 51 08          	mov    0x8(%r9),%rdx
    1490:	48 c1 e0 0a          	shl    $0xa,%rax
    1494:	48 05 fe 00 00 00    	add    $0xfe,%rax
    149a:	48 89 02             	mov    %rax,(%rdx)
    149d:	49 8b 41 08          	mov    0x8(%r9),%rax
    14a1:	f2 41 0f 10 45 00    	movsd  0x0(%r13),%xmm0
    14a7:	48 8d 70 08          	lea    0x8(%rax),%rsi
    14ab:	48 89 f2             	mov    %rsi,%rdx
    14ae:	f2 0f 11 40 08       	movsd  %xmm0,0x8(%rax)
    14b3:	48 83 fd 01          	cmp    $0x1,%rbp
    14b7:	76 31                	jbe    14ea <caml_interprete+0x14ea>
    14b9:	48 83 c2 08          	add    $0x8,%rdx
    14bd:	b8 01 00 00 00       	mov    $0x1,%eax
    14c2:	66 0f 1f 44 00 00    	nopw   0x0(%rax,%rax,1)
    14c8:	49 8b 4c c6 f8       	mov    -0x8(%r14,%rax,8),%rcx
    14cd:	48 83 c2 08          	add    $0x8,%rdx
    14d1:	f2 0f 10 01          	movsd  (%rcx),%xmm0
    14d5:	48 89 c1             	mov    %rax,%rcx
    14d8:	48 83 c0 01          	add    $0x1,%rax
    14dc:	f2 0f 11 42 f8       	movsd  %xmm0,-0x8(%rdx)
    14e1:	48 39 c5             	cmp    %rax,%rbp
    14e4:	75 e2                	jne    14c8 <caml_interprete+0x14c8>
    14e6:	4d 8d 34 ce          	lea    (%r14,%rcx,8),%r14
    14ea:	4c 89 f8             	mov    %r15,%rax
    14ed:	48 8d 3d 23 f5 ff ff 	lea    -0xadd(%rip),%rdi        # a17 <caml_interprete+0xa17>
    14f4:	4d 8d 7f 04          	lea    0x4(%r15),%r15
    14f8:	49 89 f5             	mov    %rsi,%r13
    14fb:	48 63 00             	movslq (%rax),%rax
    14fe:	48 01 f8             	add    %rdi,%rax
    1501:	ff e0                	jmpq   *%rax
    1503:	f3 0f 1e fa          	endbr64 
    1507:	4c 89 f8             	mov    %r15,%rax
    150a:	48 8d 35 06 f5 ff ff 	lea    -0xafa(%rip),%rsi        # a17 <caml_interprete+0xa17>
    1511:	4d 8b 6d 18          	mov    0x18(%r13),%r13
    1515:	4d 8d 7f 04          	lea    0x4(%r15),%r15
    1519:	48 63 00             	movslq (%rax),%rax
    151c:	48 01 f0             	add    %rsi,%rax
    151f:	ff e0                	jmpq   *%rax
    1521:	f3 0f 1e fa          	endbr64 
    1525:	49 63 07             	movslq (%r15),%rax
    1528:	48 8d 3d e8 f4 ff ff 	lea    -0xb18(%rip),%rdi        # a17 <caml_interprete+0xa17>
    152f:	4d 8b 6c c5 00       	mov    0x0(%r13,%rax,8),%r13
    1534:	4c 89 f8             	mov    %r15,%rax
    1537:	4d 8d 7f 08          	lea    0x8(%r15),%r15
    153b:	48 63 40 04          	movslq 0x4(%rax),%rax
    153f:	48 01 f8             	add    %rdi,%rax
    1542:	ff e0                	jmpq   *%rax
    1544:	f3 0f 1e fa          	endbr64 
    1548:	4c 89 f8             	mov    %r15,%rax
    154b:	4d 8d 7f 04          	lea    0x4(%r15),%r15
    154f:	48 63 00             	movslq (%rax),%rax
    1552:	4c 89 fe             	mov    %r15,%rsi
    1555:	f2 41 0f 10 44 c5 00 	movsd  0x0(%r13,%rax,8),%xmm0
    155c:	48 8b 05 00 00 00 00 	mov    0x0(%rip),%rax        # 1563 <caml_interprete+0x1563>
    1563:	64 48 8b 28          	mov    %fs:(%rax),%rbp
    1567:	48 8b 45 08          	mov    0x8(%rbp),%rax
    156b:	48 89 e9             	mov    %rbp,%rcx
    156e:	48 83 e8 10          	sub    $0x10,%rax
    1572:	48 89 45 08          	mov    %rax,0x8(%rbp)
    1576:	48 8b 11             	mov    (%rcx),%rdx
    1579:	48 39 d0             	cmp    %rdx,%rax
    157c:	0f 82 f2 13 00 00    	jb     2974 <caml_interprete+0x2974>
    1582:	48 8b 45 08          	mov    0x8(%rbp),%rax
    1586:	48 8d 0d 8a f4 ff ff 	lea    -0xb76(%rip),%rcx        # a17 <caml_interprete+0xa17>
    158d:	48 c7 00 fd 04 00 00 	movq   $0x4fd,(%rax)
    1594:	48 8b 45 08          	mov    0x8(%rbp),%rax
    1598:	4c 8d 68 08          	lea    0x8(%rax),%r13
    159c:	f2 0f 11 40 08       	movsd  %xmm0,0x8(%rax)
    15a1:	4c 89 f8             	mov    %r15,%rax
    15a4:	4d 8d 7f 04          	lea    0x4(%r15),%r15
    15a8:	48 63 00             	movslq (%rax),%rax
    15ab:	48 01 c8             	add    %rcx,%rax
    15ae:	ff e0                	jmpq   *%rax
    15b0:	f3 0f 1e fa          	endbr64 
    15b4:	4c 89 f0             	mov    %r14,%rax
    15b7:	4c 89 ef             	mov    %r13,%rdi
    15ba:	4d 8d 76 08          	lea    0x8(%r14),%r14
    15be:	41 bd 01 00 00 00    	mov    $0x1,%r13d
    15c4:	48 8b 30             	mov    (%rax),%rsi
    15c7:	e8 00 00 00 00       	callq  15cc <caml_interprete+0x15cc>
    15cc:	4c 89 f8             	mov    %r15,%rax
    15cf:	48 8d 35 41 f4 ff ff 	lea    -0xbbf(%rip),%rsi        # a17 <caml_interprete+0xa17>
    15d6:	4d 8d 7f 04          	lea    0x4(%r15),%r15
    15da:	48 63 00             	movslq (%rax),%rax
    15dd:	48 01 f0             	add    %rsi,%rax
    15e0:	ff e0                	jmpq   *%rax
    15e2:	f3 0f 1e fa          	endbr64 
    15e6:	4c 89 f8             	mov    %r15,%rax
    15e9:	48 8d 3d 27 f4 ff ff 	lea    -0xbd9(%rip),%rdi        # a17 <caml_interprete+0xa17>
    15f0:	4d 8b 6d 08          	mov    0x8(%r13),%r13
    15f4:	4d 8d 7f 04          	lea    0x4(%r15),%r15
    15f8:	48 63 00             	movslq (%rax),%rax
    15fb:	48 01 f8             	add    %rdi,%rax
    15fe:	ff e0                	jmpq   *%rax
    1600:	f3 0f 1e fa          	endbr64 
    1604:	4c 89 f8             	mov    %r15,%rax
    1607:	48 8d 0d 09 f4 ff ff 	lea    -0xbf7(%rip),%rcx        # a17 <caml_interprete+0xa17>
    160e:	4d 8b 6d 10          	mov    0x10(%r13),%r13
    1612:	4d 8d 7f 04          	lea    0x4(%r15),%r15
    1616:	48 63 00             	movslq (%rax),%rax
    1619:	48 01 c8             	add    %rcx,%rax
    161c:	ff e0                	jmpq   *%rax
    161e:	f3 0f 1e fa          	endbr64 
    1622:	4c 89 f8             	mov    %r15,%rax
    1625:	48 8d 35 eb f3 ff ff 	lea    -0xc15(%rip),%rsi        # a17 <caml_interprete+0xa17>
    162c:	4d 8b 6d 00          	mov    0x0(%r13),%r13
    1630:	4d 8d 7f 04          	lea    0x4(%r15),%r15
    1634:	48 63 00             	movslq (%rax),%rax
    1637:	48 01 f0             	add    %rsi,%rax
    163a:	ff e0                	jmpq   *%rax
    163c:	f3 0f 1e fa          	endbr64 
    1640:	4c 89 f0             	mov    %r14,%rax
    1643:	49 8d 7d 08          	lea    0x8(%r13),%rdi
    1647:	4d 8d 76 08          	lea    0x8(%r14),%r14
    164b:	41 bd 01 00 00 00    	mov    $0x1,%r13d
    1651:	48 8b 30             	mov    (%rax),%rsi
    1654:	e8 00 00 00 00       	callq  1659 <caml_interprete+0x1659>
    1659:	4c 89 f8             	mov    %r15,%rax
    165c:	48 8d 3d b4 f3 ff ff 	lea    -0xc4c(%rip),%rdi        # a17 <caml_interprete+0xa17>
    1663:	4d 8d 7f 04          	lea    0x4(%r15),%r15
    1667:	48 63 00             	movslq (%rax),%rax
    166a:	48 01 f8             	add    %rdi,%rax
    166d:	ff e0                	jmpq   *%rax
    166f:	f3 0f 1e fa          	endbr64 
    1673:	4c 89 f0             	mov    %r14,%rax
    1676:	49 8d 7d 10          	lea    0x10(%r13),%rdi
    167a:	4d 8d 76 08          	lea    0x8(%r14),%r14
    167e:	41 bd 01 00 00 00    	mov    $0x1,%r13d
    1684:	48 8b 30             	mov    (%rax),%rsi
    1687:	e8 00 00 00 00       	callq  168c <caml_interprete+0x168c>
    168c:	4c 89 f8             	mov    %r15,%rax
    168f:	48 8d 0d 81 f3 ff ff 	lea    -0xc7f(%rip),%rcx        # a17 <caml_interprete+0xa17>
    1696:	4d 8d 7f 04          	lea    0x4(%r15),%r15
    169a:	48 63 00             	movslq (%rax),%rax
    169d:	48 01 c8             	add    %rcx,%rax
    16a0:	ff e0                	jmpq   *%rax
    16a2:	f3 0f 1e fa          	endbr64 
    16a6:	4c 89 f0             	mov    %r14,%rax
    16a9:	49 8d 7d 18          	lea    0x18(%r13),%rdi
    16ad:	4d 8d 76 08          	lea    0x8(%r14),%r14
    16b1:	41 bd 01 00 00 00    	mov    $0x1,%r13d
    16b7:	48 8b 30             	mov    (%rax),%rsi
    16ba:	e8 00 00 00 00       	callq  16bf <caml_interprete+0x16bf>
    16bf:	4c 89 f8             	mov    %r15,%rax
    16c2:	48 8d 35 4e f3 ff ff 	lea    -0xcb2(%rip),%rsi        # a17 <caml_interprete+0xa17>
    16c9:	4d 8d 7f 04          	lea    0x4(%r15),%r15
    16cd:	48 63 00             	movslq (%rax),%rax
    16d0:	48 01 f0             	add    %rsi,%rax
    16d3:	ff e0                	jmpq   *%rax
    16d5:	f3 0f 1e fa          	endbr64 
    16d9:	4c 89 f0             	mov    %r14,%rax
    16dc:	49 63 17             	movslq (%r15),%rdx
    16df:	4d 8d 76 08          	lea    0x8(%r14),%r14
    16e3:	48 8b 30             	mov    (%rax),%rsi
    16e6:	49 8d 7c d5 00       	lea    0x0(%r13,%rdx,8),%rdi
    16eb:	41 bd 01 00 00 00    	mov    $0x1,%r13d
    16f1:	e8 00 00 00 00       	callq  16f6 <caml_interprete+0x16f6>
    16f6:	4c 89 f8             	mov    %r15,%rax
    16f9:	48 8d 3d 17 f3 ff ff 	lea    -0xce9(%rip),%rdi        # a17 <caml_interprete+0xa17>
    1700:	4d 8d 7f 08          	lea    0x8(%r15),%r15
    1704:	48 63 40 04          	movslq 0x4(%rax),%rax
    1708:	48 01 f8             	add    %rdi,%rax
    170b:	ff e0                	jmpq   *%rax
    170d:	f3 0f 1e fa          	endbr64 
    1711:	49 8d 47 04          	lea    0x4(%r15),%rax
    1715:	49 83 fd 01          	cmp    $0x1,%r13
    1719:	74 07                	je     1722 <caml_interprete+0x1722>
    171b:	49 63 07             	movslq (%r15),%rax
    171e:	49 8d 04 87          	lea    (%r15,%rax,4),%rax
    1722:	4c 8d 78 04          	lea    0x4(%rax),%r15
    1726:	48 63 00             	movslq (%rax),%rax
    1729:	48 8d 0d e7 f2 ff ff 	lea    -0xd19(%rip),%rcx        # a17 <caml_interprete+0xa17>
    1730:	48 01 c8             	add    %rcx,%rax
    1733:	ff e0                	jmpq   *%rax
    1735:	f3 0f 1e fa          	endbr64 
    1739:	49 8d 47 04          	lea    0x4(%r15),%rax
    173d:	49 83 fd 01          	cmp    $0x1,%r13
    1741:	75 07                	jne    174a <caml_interprete+0x174a>
    1743:	49 63 07             	movslq (%r15),%rax
    1746:	49 8d 04 87          	lea    (%r15,%rax,4),%rax
    174a:	4c 8d 78 04          	lea    0x4(%rax),%r15
    174e:	48 63 00             	movslq (%rax),%rax
    1751:	48 8d 35 bf f2 ff ff 	lea    -0xd41(%rip),%rsi        # a17 <caml_interprete+0xa17>
    1758:	48 01 f0             	add    %rsi,%rax
    175b:	ff e0                	jmpq   *%rax
    175d:	f3 0f 1e fa          	endbr64 
    1761:	4c 89 e8             	mov    %r13,%rax
    1764:	49 8d 57 04          	lea    0x4(%r15),%rdx
    1768:	a8 01                	test   $0x1,%al
    176a:	0f 85 6c 0f 00 00    	jne    26dc <caml_interprete+0x26dc>
    1770:	41 0f b7 0f          	movzwl (%r15),%ecx
    1774:	41 0f b6 45 f8       	movzbl -0x8(%r13),%eax
    1779:	48 01 c8             	add    %rcx,%rax
    177c:	48 63 04 82          	movslq (%rdx,%rax,4),%rax
    1780:	48 8d 04 82          	lea    (%rdx,%rax,4),%rax
    1784:	4c 8d 78 04          	lea    0x4(%rax),%r15
    1788:	48 63 00             	movslq (%rax),%rax
    178b:	48 8d 3d 85 f2 ff ff 	lea    -0xd7b(%rip),%rdi        # a17 <caml_interprete+0xa17>
    1792:	48 01 f8             	add    %rdi,%rax
    1795:	ff e0                	jmpq   *%rax
    1797:	f3 0f 1e fa          	endbr64 
    179b:	b8 04 00 00 00       	mov    $0x4,%eax
    17a0:	48 8d 0d 70 f2 ff ff 	lea    -0xd90(%rip),%rcx        # a17 <caml_interprete+0xa17>
    17a7:	4c 29 e8             	sub    %r13,%rax
    17aa:	49 89 c5             	mov    %rax,%r13
    17ad:	4c 89 f8             	mov    %r15,%rax
    17b0:	4d 8d 7f 04          	lea    0x4(%r15),%r15
    17b4:	48 63 00             	movslq (%rax),%rax
    17b7:	48 01 c8             	add    %rcx,%rax
    17ba:	ff e0                	jmpq   *%rax
    17bc:	f3 0f 1e fa          	endbr64 
    17c0:	49 63 0f             	movslq (%r15),%rcx
    17c3:	48 8b 34 24          	mov    (%rsp),%rsi
    17c7:	4c 89 f0             	mov    %r14,%rax
    17ca:	4d 8d 76 e0          	lea    -0x20(%r14),%r14
    17ce:	4c 89 fa             	mov    %r15,%rdx
    17d1:	49 8d 0c 8f          	lea    (%r15,%rcx,4),%rcx
    17d5:	4d 8d 7f 08          	lea    0x8(%r15),%r15
    17d9:	48 89 48 e0          	mov    %rcx,-0x20(%rax)
    17dd:	48 8b 8e d8 01 00 00 	mov    0x1d8(%rsi),%rcx
    17e4:	48 89 58 f0          	mov    %rbx,-0x10(%rax)
    17e8:	48 8d 4c 09 01       	lea    0x1(%rcx,%rcx,1),%rcx
    17ed:	48 89 48 e8          	mov    %rcx,-0x18(%rax)
    17f1:	4b 8d 4c 24 01       	lea    0x1(%r12,%r12,1),%rcx
    17f6:	48 89 48 f8          	mov    %rcx,-0x8(%rax)
    17fa:	48 8b 46 20          	mov    0x20(%rsi),%rax
    17fe:	4c 89 f1             	mov    %r14,%rcx
    1801:	48 2b 48 10          	sub    0x10(%rax),%rcx
    1805:	48 89 c8             	mov    %rcx,%rax
    1808:	48 c1 f8 03          	sar    $0x3,%rax
    180c:	48 89 86 d8 01 00 00 	mov    %rax,0x1d8(%rsi)
    1813:	48 63 42 04          	movslq 0x4(%rdx),%rax
    1817:	48 8d 35 f9 f1 ff ff 	lea    -0xe07(%rip),%rsi        # a17 <caml_interprete+0xa17>
    181e:	48 01 f0             	add    %rsi,%rax
    1821:	ff e0                	jmpq   *%rax
    1823:	f3 0f 1e fa          	endbr64 
    1827:	48 8b 0c 24          	mov    (%rsp),%rcx
    182b:	48 8b 01             	mov    (%rcx),%rax
    182e:	48 39 41 08          	cmp    %rax,0x8(%rcx)
    1832:	0f 82 8d ea ff ff    	jb     2c5 <caml_interprete+0x2c5>
    1838:	e8 00 00 00 00       	callq  183d <caml_interprete+0x183d>
    183d:	85 c0                	test   %eax,%eax
    183f:	0f 85 80 ea ff ff    	jne    2c5 <caml_interprete+0x2c5>
    1845:	49 8b 46 08          	mov    0x8(%r14),%rax
    1849:	48 8b 34 24          	mov    (%rsp),%rsi
    184d:	48 8d 3d c3 f1 ff ff 	lea    -0xe3d(%rip),%rdi        # a17 <caml_interprete+0xa17>
    1854:	49 83 c6 20          	add    $0x20,%r14
    1858:	48 d1 f8             	sar    %rax
    185b:	48 89 86 d8 01 00 00 	mov    %rax,0x1d8(%rsi)
    1862:	4c 89 f8             	mov    %r15,%rax
    1865:	4d 8d 7f 04          	lea    0x4(%r15),%r15
    1869:	48 63 00             	movslq (%rax),%rax
    186c:	48 01 f8             	add    %rdi,%rax
    186f:	ff e0                	jmpq   *%rax
    1871:	f3 0f 1e fa          	endbr64 
    1875:	48 8b 1c 24          	mov    (%rsp),%rbx
    1879:	48 8b 83 d8 01 00 00 	mov    0x1d8(%rbx),%rax
    1880:	48 3b 83 e0 01 00 00 	cmp    0x1e0(%rbx),%rax
    1887:	0f 8c 84 e8 ff ff    	jl     111 <caml_interprete+0x111>
    188d:	be 01 00 00 00       	mov    $0x1,%esi
    1892:	bf 04 00 00 00       	mov    $0x4,%edi
    1897:	e8 00 00 00 00       	callq  189c <caml_interprete+0x189c>
    189c:	48 8b 83 d8 01 00 00 	mov    0x1d8(%rbx),%rax
    18a3:	e9 69 e8 ff ff       	jmpq   111 <caml_interprete+0x111>
    18a8:	f3 0f 1e fa          	endbr64 
    18ac:	49 8b 06             	mov    (%r14),%rax
    18af:	48 8d 0d 61 f1 ff ff 	lea    -0xe9f(%rip),%rcx        # a17 <caml_interprete+0xa17>
    18b6:	49 83 c6 08          	add    $0x8,%r14
    18ba:	f2 0f 10 00          	movsd  (%rax),%xmm0
    18be:	49 63 07             	movslq (%r15),%rax
    18c1:	f2 41 0f 11 44 c5 00 	movsd  %xmm0,0x0(%r13,%rax,8)
    18c8:	4c 89 f8             	mov    %r15,%rax
    18cb:	41 bd 01 00 00 00    	mov    $0x1,%r13d
    18d1:	4d 8d 7f 08          	lea    0x8(%r15),%r15
    18d5:	48 63 40 04          	movslq 0x4(%rax),%rax
    18d9:	48 01 c8             	add    %rcx,%rax
    18dc:	ff e0                	jmpq   *%rax
    18de:	f3 0f 1e fa          	endbr64 
    18e2:	49 8b 45 f8          	mov    -0x8(%r13),%rax
    18e6:	48 8d 35 2a f1 ff ff 	lea    -0xed6(%rip),%rsi        # a17 <caml_interprete+0xa17>
    18ed:	48 c1 e8 0a          	shr    $0xa,%rax
    18f1:	4c 8d 6c 00 01       	lea    0x1(%rax,%rax,1),%r13
    18f6:	4c 89 f8             	mov    %r15,%rax
    18f9:	4d 8d 7f 04          	lea    0x4(%r15),%r15
    18fd:	48 63 00             	movslq (%rax),%rax
    1900:	48 01 f0             	add    %rsi,%rax
    1903:	ff e0                	jmpq   *%rax
    1905:	f3 0f 1e fa          	endbr64 
    1909:	49 8b 06             	mov    (%r14),%rax
    190c:	48 8d 3d 04 f1 ff ff 	lea    -0xefc(%rip),%rdi        # a17 <caml_interprete+0xa17>
    1913:	49 83 c6 08          	add    $0x8,%r14
    1917:	48 d1 f8             	sar    %rax
    191a:	4d 8b 6c c5 00       	mov    0x0(%r13,%rax,8),%r13
    191f:	4c 89 f8             	mov    %r15,%rax
    1922:	4d 8d 7f 04          	lea    0x4(%r15),%r15
    1926:	48 63 00             	movslq (%rax),%rax
    1929:	48 01 f8             	add    %rdi,%rax
    192c:	ff e0                	jmpq   *%rax
    192e:	f3 0f 1e fa          	endbr64 
    1932:	49 8b 06             	mov    (%r14),%rax
    1935:	49 8b 76 08          	mov    0x8(%r14),%rsi
    1939:	49 83 c6 10          	add    $0x10,%r14
    193d:	48 d1 f8             	sar    %rax
    1940:	49 8d 7c c5 00       	lea    0x0(%r13,%rax,8),%rdi
    1945:	41 bd 01 00 00 00    	mov    $0x1,%r13d
    194b:	e8 00 00 00 00       	callq  1950 <caml_interprete+0x1950>
    1950:	4c 89 f8             	mov    %r15,%rax
    1953:	48 8d 0d bd f0 ff ff 	lea    -0xf43(%rip),%rcx        # a17 <caml_interprete+0xa17>
    195a:	4d 8d 7f 04          	lea    0x4(%r15),%r15
    195e:	48 63 00             	movslq (%rax),%rax
    1961:	48 01 c8             	add    %rcx,%rax
    1964:	ff e0                	jmpq   *%rax
    1966:	f3 0f 1e fa          	endbr64 
    196a:	48 8b 04 24          	mov    (%rsp),%rax
    196e:	48 8b b8 e0 01 00 00 	mov    0x1e0(%rax),%rdi
    1975:	48 39 b8 d8 01 00 00 	cmp    %rdi,0x1d8(%rax)
    197c:	0f 8d 4c 0f 00 00    	jge    28ce <caml_interprete+0x28ce>
    1982:	48 8b 04 24          	mov    (%rsp),%rax
    1986:	48 83 b8 c0 00 00 00 	cmpq   $0x0,0xc0(%rax)
    198d:	00 
    198e:	0f 84 72 e7 ff ff    	je     106 <caml_interprete+0x106>
    1994:	4c 89 f0             	mov    %r14,%rax
    1997:	49 8d 57 fc          	lea    -0x4(%r15),%rdx
    199b:	49 8d 76 f8          	lea    -0x8(%r14),%rsi
    199f:	4c 89 ef             	mov    %r13,%rdi
    19a2:	48 89 50 f8          	mov    %rdx,-0x8(%rax)
    19a6:	ba 01 00 00 00       	mov    $0x1,%edx
    19ab:	49 89 f6             	mov    %rsi,%r14
    19ae:	e8 00 00 00 00       	callq  19b3 <caml_interprete+0x19b3>
    19b3:	48 8b 04 24          	mov    (%rsp),%rax
    19b7:	48 8b 80 d8 01 00 00 	mov    0x1d8(%rax),%rax
    19be:	e9 4e e7 ff ff       	jmpq   111 <caml_interprete+0x111>
    19c3:	f3 0f 1e fa          	endbr64 
    19c7:	49 8b 06             	mov    (%r14),%rax
    19ca:	49 8b 56 08          	mov    0x8(%r14),%rdx
    19ce:	48 8d 35 42 f0 ff ff 	lea    -0xfbe(%rip),%rsi        # a17 <caml_interprete+0xa17>
    19d5:	49 83 c6 10          	add    $0x10,%r14
    19d9:	48 d1 f8             	sar    %rax
    19dc:	48 d1 fa             	sar    %rdx
    19df:	42 88 14 28          	mov    %dl,(%rax,%r13,1)
    19e3:	4c 89 f8             	mov    %r15,%rax
    19e6:	41 bd 01 00 00 00    	mov    $0x1,%r13d
    19ec:	4d 8d 7f 04          	lea    0x4(%r15),%r15
    19f0:	48 63 00             	movslq (%rax),%rax
    19f3:	48 01 f0             	add    %rsi,%rax
    19f6:	ff e0                	jmpq   *%rax
    19f8:	f3 0f 1e fa          	endbr64 
    19fc:	4c 89 f0             	mov    %r14,%rax
    19ff:	48 8d 0d 11 f0 ff ff 	lea    -0xfef(%rip),%rcx        # a17 <caml_interprete+0xa17>
    1a06:	4d 8d 76 08          	lea    0x8(%r14),%r14
    1a0a:	48 8b 00             	mov    (%rax),%rax
    1a0d:	4e 8d 6c 28 ff       	lea    -0x1(%rax,%r13,1),%r13
    1a12:	4c 89 f8             	mov    %r15,%rax
    1a15:	4d 8d 7f 04          	lea    0x4(%r15),%r15
    1a19:	48 63 00             	movslq (%rax),%rax
    1a1c:	48 01 c8             	add    %rcx,%rax
    1a1f:	ff e0                	jmpq   *%rax
    1a21:	f3 0f 1e fa          	endbr64 
    1a25:	4c 89 f0             	mov    %r14,%rax
    1a28:	49 83 c5 01          	add    $0x1,%r13
    1a2c:	48 8d 35 e4 ef ff ff 	lea    -0x101c(%rip),%rsi        # a17 <caml_interprete+0xa17>
    1a33:	4c 2b 28             	sub    (%rax),%r13
    1a36:	4c 89 f8             	mov    %r15,%rax
    1a39:	4d 8d 76 08          	lea    0x8(%r14),%r14
    1a3d:	48 63 00             	movslq (%rax),%rax
    1a40:	4d 8d 7f 04          	lea    0x4(%r15),%r15
    1a44:	48 01 f0             	add    %rsi,%rax
    1a47:	ff e0                	jmpq   *%rax
    1a49:	f3 0f 1e fa          	endbr64 
    1a4d:	b8 02 00 00 00       	mov    $0x2,%eax
    1a52:	48 8d 3d be ef ff ff 	lea    -0x1042(%rip),%rdi        # a17 <caml_interprete+0xa17>
    1a59:	4c 29 e8             	sub    %r13,%rax
    1a5c:	49 89 c5             	mov    %rax,%r13
    1a5f:	4c 89 f8             	mov    %r15,%rax
    1a62:	4d 8d 7f 04          	lea    0x4(%r15),%r15
    1a66:	48 63 00             	movslq (%rax),%rax
    1a69:	48 01 f8             	add    %rdi,%rax
    1a6c:	ff e0                	jmpq   *%rax
    1a6e:	f3 0f 1e fa          	endbr64 
    1a72:	49 63 0f             	movslq (%r15),%rcx
    1a75:	4c 89 f2             	mov    %r14,%rdx
    1a78:	4c 89 f8             	mov    %r15,%rax
    1a7b:	4d 8d 76 e8          	lea    -0x18(%r14),%r14
    1a7f:	48 89 5a f0          	mov    %rbx,-0x10(%rdx)
    1a83:	49 8d 0c 8f          	lea    (%r15,%rcx,4),%rcx
    1a87:	4d 8d 7f 08          	lea    0x8(%r15),%r15
    1a8b:	48 89 4a e8          	mov    %rcx,-0x18(%rdx)
    1a8f:	4b 8d 4c 24 01       	lea    0x1(%r12,%r12,1),%rcx
    1a94:	48 89 4a f8          	mov    %rcx,-0x8(%rdx)
    1a98:	48 63 40 04          	movslq 0x4(%rax),%rax
    1a9c:	48 8d 0d 74 ef ff ff 	lea    -0x108c(%rip),%rcx        # a17 <caml_interprete+0xa17>
    1aa3:	48 01 c8             	add    %rcx,%rax
    1aa6:	ff e0                	jmpq   *%rax
    1aa8:	f3 0f 1e fa          	endbr64 
    1aac:	4c 89 f8             	mov    %r15,%rax
    1aaf:	48 8d 35 61 ef ff ff 	lea    -0x109f(%rip),%rsi        # a17 <caml_interprete+0xa17>
    1ab6:	41 bd 03 00 00 00    	mov    $0x3,%r13d
    1abc:	48 63 00             	movslq (%rax),%rax
    1abf:	4d 8d 7f 04          	lea    0x4(%r15),%r15
    1ac3:	48 01 f0             	add    %rsi,%rax
    1ac6:	ff e0                	jmpq   *%rax
    1ac8:	f3 0f 1e fa          	endbr64 
    1acc:	4c 89 f8             	mov    %r15,%rax
    1acf:	48 8d 3d 41 ef ff ff 	lea    -0x10bf(%rip),%rdi        # a17 <caml_interprete+0xa17>
    1ad6:	41 bd 05 00 00 00    	mov    $0x5,%r13d
    1adc:	48 63 00             	movslq (%rax),%rax
    1adf:	4d 8d 7f 04          	lea    0x4(%r15),%r15
    1ae3:	48 01 f8             	add    %rdi,%rax
    1ae6:	ff e0                	jmpq   *%rax
    1ae8:	f3 0f 1e fa          	endbr64 
    1aec:	4c 89 f8             	mov    %r15,%rax
    1aef:	48 8d 0d 21 ef ff ff 	lea    -0x10df(%rip),%rcx        # a17 <caml_interprete+0xa17>
    1af6:	41 bd 07 00 00 00    	mov    $0x7,%r13d
    1afc:	48 63 00             	movslq (%rax),%rax
    1aff:	4d 8d 7f 04          	lea    0x4(%r15),%r15
    1b03:	48 01 c8             	add    %rcx,%rax
    1b06:	ff e0                	jmpq   *%rax
    1b08:	f3 0f 1e fa          	endbr64 
    1b0c:	4c 89 f0             	mov    %r14,%rax
    1b0f:	48 8d 35 01 ef ff ff 	lea    -0x10ff(%rip),%rsi        # a17 <caml_interprete+0xa17>
    1b16:	4d 8d 76 f8          	lea    -0x8(%r14),%r14
    1b1a:	4c 89 68 f8          	mov    %r13,-0x8(%rax)
    1b1e:	4c 89 f8             	mov    %r15,%rax
    1b21:	41 bd 01 00 00 00    	mov    $0x1,%r13d
    1b27:	4d 8d 7f 04          	lea    0x4(%r15),%r15
    1b2b:	48 63 00             	movslq (%rax),%rax
    1b2e:	48 01 f0             	add    %rsi,%rax
    1b31:	ff e0                	jmpq   *%rax
    1b33:	f3 0f 1e fa          	endbr64 
    1b37:	4c 89 f0             	mov    %r14,%rax
    1b3a:	48 8d 3d d6 ee ff ff 	lea    -0x112a(%rip),%rdi        # a17 <caml_interprete+0xa17>
    1b41:	4d 8d 76 f8          	lea    -0x8(%r14),%r14
    1b45:	4c 89 68 f8          	mov    %r13,-0x8(%rax)
    1b49:	4c 89 f8             	mov    %r15,%rax
    1b4c:	41 bd 03 00 00 00    	mov    $0x3,%r13d
    1b52:	4d 8d 7f 04          	lea    0x4(%r15),%r15
    1b56:	48 63 00             	movslq (%rax),%rax
    1b59:	48 01 f8             	add    %rdi,%rax
    1b5c:	ff e0                	jmpq   *%rax
    1b5e:	f3 0f 1e fa          	endbr64 
    1b62:	4c 89 f0             	mov    %r14,%rax
    1b65:	48 8d 0d ab ee ff ff 	lea    -0x1155(%rip),%rcx        # a17 <caml_interprete+0xa17>
    1b6c:	4d 8d 76 f8          	lea    -0x8(%r14),%r14
    1b70:	4c 89 68 f8          	mov    %r13,-0x8(%rax)
    1b74:	4c 89 f8             	mov    %r15,%rax
    1b77:	41 bd 05 00 00 00    	mov    $0x5,%r13d
    1b7d:	4d 8d 7f 04          	lea    0x4(%r15),%r15
    1b81:	48 63 00             	movslq (%rax),%rax
    1b84:	48 01 c8             	add    %rcx,%rax
    1b87:	ff e0                	jmpq   *%rax
    1b89:	f3 0f 1e fa          	endbr64 
    1b8d:	4c 89 f0             	mov    %r14,%rax
    1b90:	48 8d 35 80 ee ff ff 	lea    -0x1180(%rip),%rsi        # a17 <caml_interprete+0xa17>
    1b97:	4d 8d 76 f8          	lea    -0x8(%r14),%r14
    1b9b:	4c 89 68 f8          	mov    %r13,-0x8(%rax)
    1b9f:	4c 89 f8             	mov    %r15,%rax
    1ba2:	41 bd 07 00 00 00    	mov    $0x7,%r13d
    1ba8:	4d 8d 7f 04          	lea    0x4(%r15),%r15
    1bac:	48 63 00             	movslq (%rax),%rax
    1baf:	48 01 f0             	add    %rsi,%rax
    1bb2:	ff e0                	jmpq   *%rax
    1bb4:	f3 0f 1e fa          	endbr64 
    1bb8:	49 89 5e f0          	mov    %rbx,-0x10(%r14)
    1bbc:	48 8b 1c 24          	mov    (%rsp),%rbx
    1bc0:	49 8d 57 04          	lea    0x4(%r15),%rdx
    1bc4:	49 8d 4e f0          	lea    -0x10(%r14),%rcx
    1bc8:	49 89 56 f8          	mov    %rdx,-0x8(%r14)
    1bcc:	4c 89 ef             	mov    %r13,%rdi
    1bcf:	31 c0                	xor    %eax,%eax
    1bd1:	48 8b 53 20          	mov    0x20(%rbx),%rdx
    1bd5:	48 89 0a             	mov    %rcx,(%rdx)
    1bd8:	4d 63 0f             	movslq (%r15),%r9
    1bdb:	4c 8b 05 00 00 00 00 	mov    0x0(%rip),%r8        # 1be2 <caml_interprete+0x1be2>
    1be2:	49 8b 4e 10          	mov    0x10(%r14),%rcx
    1be6:	49 8b 56 08          	mov    0x8(%r14),%rdx
    1bea:	49 8b 36             	mov    (%r14),%rsi
    1bed:	43 ff 14 c8          	callq  *(%r8,%r9,8)
    1bf1:	48 8d 0d 1f ee ff ff 	lea    -0x11e1(%rip),%rcx        # a17 <caml_interprete+0xa17>
    1bf8:	49 89 c5             	mov    %rax,%r13
    1bfb:	48 8b 43 20          	mov    0x20(%rbx),%rax
    1bff:	4c 8b 30             	mov    (%rax),%r14
    1c02:	4c 89 f8             	mov    %r15,%rax
    1c05:	4d 8d 7f 08          	lea    0x8(%r15),%r15
    1c09:	48 63 40 04          	movslq 0x4(%rax),%rax
    1c0d:	49 8b 1e             	mov    (%r14),%rbx
    1c10:	49 83 c6 28          	add    $0x28,%r14
    1c14:	48 01 c8             	add    %rcx,%rax
    1c17:	ff e0                	jmpq   *%rax
    1c19:	f3 0f 1e fa          	endbr64 
    1c1d:	49 89 5e f0          	mov    %rbx,-0x10(%r14)
    1c21:	48 8b 1c 24          	mov    (%rsp),%rbx
    1c25:	49 8d 57 04          	lea    0x4(%r15),%rdx
    1c29:	49 8d 4e f0          	lea    -0x10(%r14),%rcx
    1c2d:	49 89 56 f8          	mov    %rdx,-0x8(%r14)
    1c31:	4c 89 ef             	mov    %r13,%rdi
    1c34:	31 c0                	xor    %eax,%eax
    1c36:	48 8b 53 20          	mov    0x20(%rbx),%rdx
    1c3a:	48 89 0a             	mov    %rcx,(%rdx)
    1c3d:	4d 63 17             	movslq (%r15),%r10
    1c40:	4c 8b 0d 00 00 00 00 	mov    0x0(%rip),%r9        # 1c47 <caml_interprete+0x1c47>
    1c47:	49 8b 36             	mov    (%r14),%rsi
    1c4a:	49 8b 4e 10          	mov    0x10(%r14),%rcx
    1c4e:	49 8b 56 08          	mov    0x8(%r14),%rdx
    1c52:	4d 8b 46 18          	mov    0x18(%r14),%r8
    1c56:	43 ff 14 d1          	callq  *(%r9,%r10,8)
    1c5a:	48 8d 35 b6 ed ff ff 	lea    -0x124a(%rip),%rsi        # a17 <caml_interprete+0xa17>
    1c61:	49 89 c5             	mov    %rax,%r13
    1c64:	48 8b 43 20          	mov    0x20(%rbx),%rax
    1c68:	4c 8b 30             	mov    (%rax),%r14
    1c6b:	4c 89 f8             	mov    %r15,%rax
    1c6e:	4d 8d 7f 08          	lea    0x8(%r15),%r15
    1c72:	48 63 40 04          	movslq 0x4(%rax),%rax
    1c76:	49 8b 1e             	mov    (%r14),%rbx
    1c79:	49 83 c6 30          	add    $0x30,%r14
    1c7d:	48 01 f0             	add    %rsi,%rax
    1c80:	ff e0                	jmpq   *%rax
    1c82:	f3 0f 1e fa          	endbr64 
    1c86:	4c 89 f8             	mov    %r15,%rax
    1c89:	4d 8d 7f 04          	lea    0x4(%r15),%r15
    1c8d:	49 8d 4e e8          	lea    -0x18(%r14),%rcx
    1c91:	8b 28                	mov    (%rax),%ebp
    1c93:	49 89 5e e8          	mov    %rbx,-0x18(%r14)
    1c97:	49 8d 57 04          	lea    0x4(%r15),%rdx
    1c9b:	49 8d 7e f8          	lea    -0x8(%r14),%rdi
    1c9f:	48 8b 1c 24          	mov    (%rsp),%rbx
    1ca3:	4d 89 6e f8          	mov    %r13,-0x8(%r14)
    1ca7:	31 c0                	xor    %eax,%eax
    1ca9:	49 89 56 f0          	mov    %rdx,-0x10(%r14)
    1cad:	89 ee                	mov    %ebp,%esi
    1caf:	48 8b 53 20          	mov    0x20(%rbx),%rdx
    1cb3:	48 89 0a             	mov    %rcx,(%rdx)
    1cb6:	49 63 0f             	movslq (%r15),%rcx
    1cb9:	48 8b 15 00 00 00 00 	mov    0x0(%rip),%rdx        # 1cc0 <caml_interprete+0x1cc0>
    1cc0:	ff 14 ca             	callq  *(%rdx,%rcx,8)
    1cc3:	48 8d 3d 4d ed ff ff 	lea    -0x12b3(%rip),%rdi        # a17 <caml_interprete+0xa17>
    1cca:	49 89 c5             	mov    %rax,%r13
    1ccd:	48 8b 43 20          	mov    0x20(%rbx),%rax
    1cd1:	48 8b 10             	mov    (%rax),%rdx
    1cd4:	48 63 c5             	movslq %ebp,%rax
    1cd7:	4c 8d 74 c2 10       	lea    0x10(%rdx,%rax,8),%r14
    1cdc:	4c 89 f8             	mov    %r15,%rax
    1cdf:	48 8b 1a             	mov    (%rdx),%rbx
    1ce2:	4d 8d 7f 08          	lea    0x8(%r15),%r15
    1ce6:	48 63 40 04          	movslq 0x4(%rax),%rax
    1cea:	48 01 f8             	add    %rdi,%rax
    1ced:	ff e0                	jmpq   *%rax
    1cef:	f3 0f 1e fa          	endbr64 
    1cf3:	4c 89 f8             	mov    %r15,%rax
    1cf6:	48 8d 0d 1a ed ff ff 	lea    -0x12e6(%rip),%rcx        # a17 <caml_interprete+0xa17>
    1cfd:	41 bd 01 00 00 00    	mov    $0x1,%r13d
    1d03:	48 63 00             	movslq (%rax),%rax
    1d06:	4d 8d 7f 04          	lea    0x4(%r15),%r15
    1d0a:	48 01 c8             	add    %rcx,%rax
    1d0d:	ff e0                	jmpq   *%rax
    1d0f:	f3 0f 1e fa          	endbr64 
    1d13:	49 89 5e f0          	mov    %rbx,-0x10(%r14)
    1d17:	48 8b 1c 24          	mov    (%rsp),%rbx
    1d1b:	49 8d 57 04          	lea    0x4(%r15),%rdx
    1d1f:	49 8d 4e f0          	lea    -0x10(%r14),%rcx
    1d23:	49 89 56 f8          	mov    %rdx,-0x8(%r14)
    1d27:	4c 89 ef             	mov    %r13,%rdi
    1d2a:	31 c0                	xor    %eax,%eax
    1d2c:	48 8b 53 20          	mov    0x20(%rbx),%rdx
    1d30:	48 89 0a             	mov    %rcx,(%rdx)
    1d33:	49 63 0f             	movslq (%r15),%rcx
    1d36:	48 8b 15 00 00 00 00 	mov    0x0(%rip),%rdx        # 1d3d <caml_interprete+0x1d3d>
    1d3d:	49 8b 36             	mov    (%r14),%rsi
    1d40:	ff 14 ca             	callq  *(%rdx,%rcx,8)
    1d43:	48 8d 35 cd ec ff ff 	lea    -0x1333(%rip),%rsi        # a17 <caml_interprete+0xa17>
    1d4a:	49 89 c5             	mov    %rax,%r13
    1d4d:	48 8b 43 20          	mov    0x20(%rbx),%rax
    1d51:	4c 8b 30             	mov    (%rax),%r14
    1d54:	4c 89 f8             	mov    %r15,%rax
    1d57:	4d 8d 7f 08          	lea    0x8(%r15),%r15
    1d5b:	48 63 40 04          	movslq 0x4(%rax),%rax
    1d5f:	49 8b 1e             	mov    (%r14),%rbx
    1d62:	49 83 c6 18          	add    $0x18,%r14
    1d66:	48 01 f0             	add    %rsi,%rax
    1d69:	ff e0                	jmpq   *%rax
    1d6b:	f3 0f 1e fa          	endbr64 
    1d6f:	49 89 5e f0          	mov    %rbx,-0x10(%r14)
    1d73:	48 8b 1c 24          	mov    (%rsp),%rbx
    1d77:	49 8d 57 04          	lea    0x4(%r15),%rdx
    1d7b:	49 8d 4e f0          	lea    -0x10(%r14),%rcx
    1d7f:	49 89 56 f8          	mov    %rdx,-0x8(%r14)
    1d83:	4c 89 ef             	mov    %r13,%rdi
    1d86:	31 c0                	xor    %eax,%eax
    1d88:	48 8b 53 20          	mov    0x20(%rbx),%rdx
    1d8c:	48 89 0a             	mov    %rcx,(%rdx)
    1d8f:	4d 63 07             	movslq (%r15),%r8
    1d92:	48 8b 0d 00 00 00 00 	mov    0x0(%rip),%rcx        # 1d99 <caml_interprete+0x1d99>
    1d99:	49 8b 56 08          	mov    0x8(%r14),%rdx
    1d9d:	49 8b 36             	mov    (%r14),%rsi
    1da0:	42 ff 14 c1          	callq  *(%rcx,%r8,8)
    1da4:	48 8d 3d 6c ec ff ff 	lea    -0x1394(%rip),%rdi        # a17 <caml_interprete+0xa17>
    1dab:	49 89 c5             	mov    %rax,%r13
    1dae:	48 8b 43 20          	mov    0x20(%rbx),%rax
    1db2:	4c 8b 30             	mov    (%rax),%r14
    1db5:	4c 89 f8             	mov    %r15,%rax
    1db8:	4d 8d 7f 08          	lea    0x8(%r15),%r15
    1dbc:	48 63 40 04          	movslq 0x4(%rax),%rax
    1dc0:	49 8b 1e             	mov    (%r14),%rbx
    1dc3:	49 83 c6 20          	add    $0x20,%r14
    1dc7:	48 01 f8             	add    %rdi,%rax
    1dca:	ff e0                	jmpq   *%rax
    1dcc:	f3 0f 1e fa          	endbr64 
    1dd0:	49 89 5e f0          	mov    %rbx,-0x10(%r14)
    1dd4:	48 8b 1c 24          	mov    (%rsp),%rbx
    1dd8:	49 8d 57 04          	lea    0x4(%r15),%rdx
    1ddc:	49 8d 4e f0          	lea    -0x10(%r14),%rcx
    1de0:	49 89 56 f8          	mov    %rdx,-0x8(%r14)
    1de4:	4c 89 ef             	mov    %r13,%rdi
    1de7:	31 c0                	xor    %eax,%eax
    1de9:	48 8b 53 20          	mov    0x20(%rbx),%rdx
    1ded:	48 89 0a             	mov    %rcx,(%rdx)
    1df0:	49 63 0f             	movslq (%r15),%rcx
    1df3:	48 8b 15 00 00 00 00 	mov    0x0(%rip),%rdx        # 1dfa <caml_interprete+0x1dfa>
    1dfa:	ff 14 ca             	callq  *(%rdx,%rcx,8)
    1dfd:	48 8d 0d 13 ec ff ff 	lea    -0x13ed(%rip),%rcx        # a17 <caml_interprete+0xa17>
    1e04:	49 89 c5             	mov    %rax,%r13
    1e07:	48 8b 43 20          	mov    0x20(%rbx),%rax
    1e0b:	4c 8b 30             	mov    (%rax),%r14
    1e0e:	4c 89 f8             	mov    %r15,%rax
    1e11:	4d 8d 7f 08          	lea    0x8(%r15),%r15
    1e15:	48 63 40 04          	movslq 0x4(%rax),%rax
    1e19:	49 8b 1e             	mov    (%r14),%rbx
    1e1c:	49 83 c6 10          	add    $0x10,%r14
    1e20:	48 01 c8             	add    %rcx,%rax
    1e23:	ff e0                	jmpq   *%rax
    1e25:	f3 0f 1e fa          	endbr64 
    1e29:	49 63 0f             	movslq (%r15),%rcx
    1e2c:	49 8b 16             	mov    (%r14),%rdx
    1e2f:	4c 89 eb             	mov    %r13,%rbx
    1e32:	49 83 c4 01          	add    $0x1,%r12
    1e36:	49 8b 46 08          	mov    0x8(%r14),%rax
    1e3a:	4d 8d 74 ce f0       	lea    -0x10(%r14,%rcx,8),%r14
    1e3f:	49 89 16             	mov    %rdx,(%r14)
    1e42:	49 89 46 08          	mov    %rax,0x8(%r14)
    1e46:	4d 8b 7d 00          	mov    0x0(%r13),%r15
    1e4a:	e9 1e e3 ff ff       	jmpq   16d <caml_interprete+0x16d>
    1e4f:	f3 0f 1e fa          	endbr64 
    1e53:	49 63 37             	movslq (%r15),%rsi
    1e56:	49 8b 0e             	mov    (%r14),%rcx
    1e59:	4c 89 eb             	mov    %r13,%rbx
    1e5c:	49 83 c4 02          	add    $0x2,%r12
    1e60:	49 8b 56 08          	mov    0x8(%r14),%rdx
    1e64:	49 8b 46 10          	mov    0x10(%r14),%rax
    1e68:	4d 8d 74 f6 e8       	lea    -0x18(%r14,%rsi,8),%r14
    1e6d:	49 89 0e             	mov    %rcx,(%r14)
    1e70:	49 89 56 08          	mov    %rdx,0x8(%r14)
    1e74:	49 89 46 10          	mov    %rax,0x10(%r14)
    1e78:	4d 8b 7d 00          	mov    0x0(%r13),%r15
    1e7c:	e9 ec e2 ff ff       	jmpq   16d <caml_interprete+0x16d>
    1e81:	f3 0f 1e fa          	endbr64 
    1e85:	49 63 07             	movslq (%r15),%rax
    1e88:	49 8d 04 c6          	lea    (%r14,%rax,8),%rax
    1e8c:	49 89 c6             	mov    %rax,%r14
    1e8f:	4d 85 e4             	test   %r12,%r12
    1e92:	0f 8e 0a 08 00 00    	jle    26a2 <caml_interprete+0x26a2>
    1e98:	49 8b 55 00          	mov    0x0(%r13),%rdx
    1e9c:	48 8d 35 74 eb ff ff 	lea    -0x148c(%rip),%rsi        # a17 <caml_interprete+0xa17>
    1ea3:	49 83 ec 01          	sub    $0x1,%r12
    1ea7:	4c 89 eb             	mov    %r13,%rbx
    1eaa:	48 63 02             	movslq (%rdx),%rax
    1ead:	4c 8d 7a 04          	lea    0x4(%rdx),%r15
    1eb1:	48 01 f0             	add    %rsi,%rax
    1eb4:	ff e0                	jmpq   *%rax
    1eb6:	f3 0f 1e fa          	endbr64 
    1eba:	48 8b 53 f8          	mov    -0x8(%rbx),%rdx
    1ebe:	4c 89 f6             	mov    %r14,%rsi
    1ec1:	48 c1 ea 0a          	shr    $0xa,%rdx
    1ec5:	8d 42 fd             	lea    -0x3(%rdx),%eax
    1ec8:	8d 7a fc             	lea    -0x4(%rdx),%edi
    1ecb:	31 d2                	xor    %edx,%edx
    1ecd:	48 63 c8             	movslq %eax,%rcx
    1ed0:	48 c1 e1 03          	shl    $0x3,%rcx
    1ed4:	48 29 ce             	sub    %rcx,%rsi
    1ed7:	49 89 f6             	mov    %rsi,%r14
    1eda:	85 c0                	test   %eax,%eax
    1edc:	7e 1c                	jle    1efa <caml_interprete+0x1efa>
    1ede:	66 90                	xchg   %ax,%ax
    1ee0:	8d 4a 03             	lea    0x3(%rdx),%ecx
    1ee3:	48 63 c9             	movslq %ecx,%rcx
    1ee6:	48 8b 0c cb          	mov    (%rbx,%rcx,8),%rcx
    1eea:	48 89 0c d6          	mov    %rcx,(%rsi,%rdx,8)
    1eee:	48 89 d1             	mov    %rdx,%rcx
    1ef1:	48 83 c2 01          	add    $0x1,%rdx
    1ef5:	48 39 cf             	cmp    %rcx,%rdi
    1ef8:	75 e6                	jne    1ee0 <caml_interprete+0x1ee0>
    1efa:	48 98                	cltq   
    1efc:	48 8d 35 14 eb ff ff 	lea    -0x14ec(%rip),%rsi        # a17 <caml_interprete+0xa17>
    1f03:	48 8b 5b 10          	mov    0x10(%rbx),%rbx
    1f07:	49 01 c4             	add    %rax,%r12
    1f0a:	4c 89 f8             	mov    %r15,%rax
    1f0d:	4d 8d 7f 04          	lea    0x4(%r15),%r15
    1f11:	48 63 00             	movslq (%rax),%rax
    1f14:	48 01 f0             	add    %rsi,%rax
    1f17:	ff e0                	jmpq   *%rax
    1f19:	f3 0f 1e fa          	endbr64 
    1f1d:	4c 89 f8             	mov    %r15,%rax
    1f20:	4d 8d 7f 04          	lea    0x4(%r15),%r15
    1f24:	48 63 10             	movslq (%rax),%rdx
    1f27:	4c 39 e2             	cmp    %r12,%rdx
    1f2a:	0f 8f 9e 06 00 00    	jg     25ce <caml_interprete+0x25ce>
    1f30:	4c 8d 78 08          	lea    0x8(%rax),%r15
    1f34:	48 63 40 04          	movslq 0x4(%rax),%rax
    1f38:	48 8d 3d d8 ea ff ff 	lea    -0x1528(%rip),%rdi        # a17 <caml_interprete+0xa17>
    1f3f:	49 29 d4             	sub    %rdx,%r12
    1f42:	48 01 f8             	add    %rdi,%rax
    1f45:	ff e0                	jmpq   *%rax
    1f47:	f3 0f 1e fa          	endbr64 
    1f4b:	4c 89 f8             	mov    %r15,%rax
    1f4e:	4d 8d 7f 04          	lea    0x4(%r15),%r15
    1f52:	8b 00                	mov    (%rax),%eax
    1f54:	89 44 24 30          	mov    %eax,0x30(%rsp)
    1f58:	85 c0                	test   %eax,%eax
    1f5a:	7e 0b                	jle    1f67 <caml_interprete+0x1f67>
    1f5c:	4c 89 f0             	mov    %r14,%rax
    1f5f:	4d 8d 76 f8          	lea    -0x8(%r14),%r14
    1f63:	4c 89 68 f8          	mov    %r13,-0x8(%rax)
    1f67:	8b 7c 24 30          	mov    0x30(%rsp),%edi
    1f6b:	81 ff fe 00 00 00    	cmp    $0xfe,%edi
    1f71:	0f 8f b5 07 00 00    	jg     272c <caml_interprete+0x272c>
    1f77:	48 8b 05 00 00 00 00 	mov    0x0(%rip),%rax        # 1f7e <caml_interprete+0x1f7e>
    1f7e:	8d 6f 03             	lea    0x3(%rdi),%ebp
    1f81:	4c 89 fa             	mov    %r15,%rdx
    1f84:	48 63 ed             	movslq %ebp,%rbp
    1f87:	64 4c 8b 00          	mov    %fs:(%rax),%r8
    1f8b:	48 c1 e5 03          	shl    $0x3,%rbp
    1f8f:	48 89 ef             	mov    %rbp,%rdi
    1f92:	49 8b 40 08          	mov    0x8(%r8),%rax
    1f96:	48 f7 df             	neg    %rdi
    1f99:	4c 89 c1             	mov    %r8,%rcx
    1f9c:	48 29 e8             	sub    %rbp,%rax
    1f9f:	49 89 40 08          	mov    %rax,0x8(%r8)
    1fa3:	48 8b 31             	mov    (%rcx),%rsi
    1fa6:	48 39 f0             	cmp    %rsi,%rax
    1fa9:	0f 82 6f 0d 00 00    	jb     2d1e <caml_interprete+0x2d1e>
    1faf:	8b 7c 24 30          	mov    0x30(%rsp),%edi
    1fb3:	49 8b 50 08          	mov    0x8(%r8),%rdx
    1fb7:	8d 47 02             	lea    0x2(%rdi),%eax
    1fba:	48 98                	cltq   
    1fbc:	48 c1 e0 0a          	shl    $0xa,%rax
    1fc0:	48 05 f7 00 00 00    	add    $0xf7,%rax
    1fc6:	48 89 02             	mov    %rax,(%rdx)
    1fc9:	49 8b 70 08          	mov    0x8(%r8),%rsi
    1fcd:	4c 8d 46 08          	lea    0x8(%rsi),%r8
    1fd1:	4d 89 c5             	mov    %r8,%r13
    1fd4:	85 ff                	test   %edi,%edi
    1fd6:	0f 8e 38 0d 00 00    	jle    2d14 <caml_interprete+0x2d14>
    1fdc:	4c 89 44 24 58       	mov    %r8,0x58(%rsp)
    1fe1:	4c 89 f1             	mov    %r14,%rcx
    1fe4:	83 ef 01             	sub    $0x1,%edi
    1fe7:	31 c0                	xor    %eax,%eax
    1fe9:	0f 1f 80 00 00 00 00 	nopl   0x0(%rax)
    1ff0:	48 8b 14 c1          	mov    (%rcx,%rax,8),%rdx
    1ff4:	48 89 54 c6 18       	mov    %rdx,0x18(%rsi,%rax,8)
    1ff9:	48 89 c2             	mov    %rax,%rdx
    1ffc:	48 83 c0 01          	add    $0x1,%rax
    2000:	48 39 d7             	cmp    %rdx,%rdi
    2003:	75 eb                	jne    1ff0 <caml_interprete+0x1ff0>
    2005:	49 63 07             	movslq (%r15),%rax
    2008:	48 8d 0d 08 ea ff ff 	lea    -0x15f8(%rip),%rcx        # a17 <caml_interprete+0xa17>
    200f:	49 8d 04 87          	lea    (%r15,%rax,4),%rax
    2013:	49 83 c7 04          	add    $0x4,%r15
    2017:	49 89 00             	mov    %rax,(%r8)
    201a:	48 8b 44 24 58       	mov    0x58(%rsp),%rax
    201f:	48 c7 40 08 05 00 00 	movq   $0x5,0x8(%rax)
    2026:	00 
    2027:	48 63 44 24 30       	movslq 0x30(%rsp),%rax
    202c:	4d 8d 34 c6          	lea    (%r14,%rax,8),%r14
    2030:	4c 89 f8             	mov    %r15,%rax
    2033:	4d 8d 7f 04          	lea    0x4(%r15),%r15
    2037:	48 63 00             	movslq (%rax),%rax
    203a:	48 01 c8             	add    %rcx,%rax
    203d:	ff e0                	jmpq   *%rax
    203f:	f3 0f 1e fa          	endbr64 
    2043:	41 8b 3f             	mov    (%r15),%edi
    2046:	4c 89 f8             	mov    %r15,%rax
    2049:	4d 8d 7f 08          	lea    0x8(%r15),%r15
    204d:	48 63 68 04          	movslq 0x4(%rax),%rbp
    2051:	8d 44 7f ff          	lea    -0x1(%rdi,%rdi,2),%eax
    2055:	89 7c 24 34          	mov    %edi,0x34(%rsp)
    2059:	48 98                	cltq   
    205b:	48 89 ea             	mov    %rbp,%rdx
    205e:	48 89 6c 24 48       	mov    %rbp,0x48(%rsp)
    2063:	48 89 44 24 38       	mov    %rax,0x38(%rsp)
    2068:	48 01 c5             	add    %rax,%rbp
    206b:	85 d2                	test   %edx,%edx
    206d:	7e 0b                	jle    207a <caml_interprete+0x207a>
    206f:	4c 89 f0             	mov    %r14,%rax
    2072:	4d 8d 76 f8          	lea    -0x8(%r14),%r14
    2076:	4c 89 68 f8          	mov    %r13,-0x8(%rax)
    207a:	48 81 fd 00 01 00 00 	cmp    $0x100,%rbp
    2081:	0f 87 30 07 00 00    	ja     27b7 <caml_interprete+0x27b7>
    2087:	48 8b 05 00 00 00 00 	mov    0x0(%rip),%rax        # 208e <caml_interprete+0x208e>
    208e:	48 c7 c1 f8 ff ff ff 	mov    $0xfffffffffffffff8,%rcx
    2095:	4c 89 ff             	mov    %r15,%rdi
    2098:	64 4c 8b 10          	mov    %fs:(%rax),%r10
    209c:	48 8d 04 ed 00 00 00 	lea    0x0(,%rbp,8),%rax
    20a3:	00 
    20a4:	48 29 c1             	sub    %rax,%rcx
    20a7:	48 83 c0 08          	add    $0x8,%rax
    20ab:	49 8b 72 08          	mov    0x8(%r10),%rsi
    20af:	4d 89 d0             	mov    %r10,%r8
    20b2:	48 01 ce             	add    %rcx,%rsi
    20b5:	49 89 72 08          	mov    %rsi,0x8(%r10)
    20b9:	4d 8b 08             	mov    (%r8),%r9
    20bc:	4c 39 ce             	cmp    %r9,%rsi
    20bf:	0f 82 df 0c 00 00    	jb     2da4 <caml_interprete+0x2da4>
    20c5:	49 8b 4a 08          	mov    0x8(%r10),%rcx
    20c9:	48 c1 e5 0a          	shl    $0xa,%rbp
    20cd:	4c 89 74 24 40       	mov    %r14,0x40(%rsp)
    20d2:	48 8d 85 f7 00 00 00 	lea    0xf7(%rbp),%rax
    20d9:	48 89 01             	mov    %rax,(%rcx)
    20dc:	4d 8b 6a 08          	mov    0x8(%r10),%r13
    20e0:	48 8b 44 24 38       	mov    0x38(%rsp),%rax
    20e5:	49 83 c5 08          	add    $0x8,%r13
    20e9:	49 8d 44 c5 00       	lea    0x0(%r13,%rax,8),%rax
    20ee:	85 d2                	test   %edx,%edx
    20f0:	7e 1f                	jle    2111 <caml_interprete+0x2111>
    20f2:	83 ea 01             	sub    $0x1,%edx
    20f5:	4c 89 f1             	mov    %r14,%rcx
    20f8:	48 8d 74 d0 08       	lea    0x8(%rax,%rdx,8),%rsi
    20fd:	48 29 c1             	sub    %rax,%rcx
    2100:	48 8b 14 08          	mov    (%rax,%rcx,1),%rdx
    2104:	48 83 c0 08          	add    $0x8,%rax
    2108:	48 89 50 f8          	mov    %rdx,-0x8(%rax)
    210c:	48 39 f0             	cmp    %rsi,%rax
    210f:	75 ef                	jne    2100 <caml_interprete+0x2100>
    2111:	48 8b 44 24 40       	mov    0x40(%rsp),%rax
    2116:	48 8b 7c 24 48       	mov    0x48(%rsp),%rdi
    211b:	4d 89 fa             	mov    %r15,%r10
    211e:	48 8d 0c f8          	lea    (%rax,%rdi,8),%rcx
    2122:	48 8b 7c 24 38       	mov    0x38(%rsp),%rdi
    2127:	4c 89 69 f8          	mov    %r13,-0x8(%rcx)
    212b:	49 63 07             	movslq (%r15),%rax
    212e:	4c 8d 71 f8          	lea    -0x8(%rcx),%r14
    2132:	48 8d 74 3f 01       	lea    0x1(%rdi,%rdi,1),%rsi
    2137:	49 89 75 08          	mov    %rsi,0x8(%r13)
    213b:	8b 74 24 34          	mov    0x34(%rsp),%esi
    213f:	49 8d 04 87          	lea    (%r15,%rax,4),%rax
    2143:	49 89 45 00          	mov    %rax,0x0(%r13)
    2147:	49 8d 45 10          	lea    0x10(%r13),%rax
    214b:	83 fe 01             	cmp    $0x1,%esi
    214e:	7e 6a                	jle    21ba <caml_interprete+0x21ba>
    2150:	4c 8d 44 3f fb       	lea    -0x5(%rdi,%rdi,1),%r8
    2155:	44 8d 0c 76          	lea    (%rsi,%rsi,2),%r9d
    2159:	48 83 e9 10          	sub    $0x10,%rcx
    215d:	bf 04 00 00 00       	mov    $0x4,%edi
    2162:	be 03 00 00 00       	mov    $0x3,%esi
    2167:	66 0f 1f 84 00 00 00 	nopw   0x0(%rax,%rax,1)
    216e:	00 00 
    2170:	48 63 d6             	movslq %esi,%rdx
    2173:	4c 8d 50 08          	lea    0x8(%rax),%r10
    2177:	83 c6 03             	add    $0x3,%esi
    217a:	49 89 ce             	mov    %rcx,%r14
    217d:	48 c1 e2 0a          	shl    $0xa,%rdx
    2181:	48 83 e9 08          	sub    $0x8,%rcx
    2185:	48 81 c2 f9 00 00 00 	add    $0xf9,%rdx
    218c:	48 89 10             	mov    %rdx,(%rax)
    218f:	48 89 c2             	mov    %rax,%rdx
    2192:	48 83 c0 18          	add    $0x18,%rax
    2196:	4c 89 51 08          	mov    %r10,0x8(%rcx)
    219a:	4d 63 1c 3f          	movslq (%r15,%rdi,1),%r11
    219e:	4d 89 fa             	mov    %r15,%r10
    21a1:	48 83 c7 04          	add    $0x4,%rdi
    21a5:	4f 8d 1c 9f          	lea    (%r15,%r11,4),%r11
    21a9:	4c 89 58 f0          	mov    %r11,-0x10(%rax)
    21ad:	4c 89 42 10          	mov    %r8,0x10(%rdx)
    21b1:	49 83 e8 06          	sub    $0x6,%r8
    21b5:	41 39 f1             	cmp    %esi,%r9d
    21b8:	75 b6                	jne    2170 <caml_interprete+0x2170>
    21ba:	48 63 44 24 34       	movslq 0x34(%rsp),%rax
    21bf:	48 8d 35 51 e8 ff ff 	lea    -0x17af(%rip),%rsi        # a17 <caml_interprete+0xa17>
    21c6:	49 8d 04 82          	lea    (%r10,%rax,4),%rax
    21ca:	4c 8d 78 04          	lea    0x4(%rax),%r15
    21ce:	48 63 00             	movslq (%rax),%rax
    21d1:	48 01 f0             	add    %rsi,%rax
    21d4:	ff e0                	jmpq   *%rax
    21d6:	f3 0f 1e fa          	endbr64 
    21da:	49 8b 56 08          	mov    0x8(%r14),%rdx
    21de:	49 8b 0e             	mov    (%r14),%rcx
    21e1:	4c 89 f0             	mov    %r14,%rax
    21e4:	4d 8d 76 e8          	lea    -0x18(%r14),%r14
    21e8:	4c 89 78 f8          	mov    %r15,-0x8(%rax)
    21ec:	48 89 50 f0          	mov    %rdx,-0x10(%rax)
    21f0:	4b 8d 54 24 01       	lea    0x1(%r12,%r12,1),%rdx
    21f5:	48 89 48 e8          	mov    %rcx,-0x18(%rax)
    21f9:	48 89 18             	mov    %rbx,(%rax)
    21fc:	48 89 50 08          	mov    %rdx,0x8(%rax)
    2200:	4d 8b 7d 00          	mov    0x0(%r13),%r15
    2204:	4d 85 ff             	test   %r15,%r15
    2207:	0f 84 15 07 00 00    	je     2922 <caml_interprete+0x2922>
    220d:	4c 89 eb             	mov    %r13,%rbx
    2210:	41 bc 01 00 00 00    	mov    $0x1,%r12d
    2216:	e9 52 df ff ff       	jmpq   16d <caml_interprete+0x16d>
    221b:	f3 0f 1e fa          	endbr64 
    221f:	49 8b 56 10          	mov    0x10(%r14),%rdx
    2223:	49 8b 36             	mov    (%r14),%rsi
    2226:	4c 89 f0             	mov    %r14,%rax
    2229:	4d 8d 76 e8          	lea    -0x18(%r14),%r14
    222d:	49 8b 4e 20          	mov    0x20(%r14),%rcx
    2231:	4c 89 38             	mov    %r15,(%rax)
    2234:	48 89 50 f8          	mov    %rdx,-0x8(%rax)
    2238:	4b 8d 54 24 01       	lea    0x1(%r12,%r12,1),%rdx
    223d:	48 89 70 e8          	mov    %rsi,-0x18(%rax)
    2241:	48 89 48 f0          	mov    %rcx,-0x10(%rax)
    2245:	48 89 58 08          	mov    %rbx,0x8(%rax)
    2249:	48 89 50 10          	mov    %rdx,0x10(%rax)
    224d:	4d 8b 7d 00          	mov    0x0(%r13),%r15
    2251:	4d 85 ff             	test   %r15,%r15
    2254:	0f 84 e9 06 00 00    	je     2943 <caml_interprete+0x2943>
    225a:	4c 89 eb             	mov    %r13,%rbx
    225d:	41 bc 02 00 00 00    	mov    $0x2,%r12d
    2263:	e9 05 df ff ff       	jmpq   16d <caml_interprete+0x16d>
    2268:	f3 0f 1e fa          	endbr64 
    226c:	49 63 0f             	movslq (%r15),%rcx
    226f:	49 63 57 04          	movslq 0x4(%r15),%rdx
    2273:	4c 89 f6             	mov    %r14,%rsi
    2276:	48 89 c8             	mov    %rcx,%rax
    2279:	48 29 ca             	sub    %rcx,%rdx
    227c:	83 e8 01             	sub    $0x1,%eax
    227f:	4d 8d 34 d6          	lea    (%r14,%rdx,8),%r14
    2283:	89 c7                	mov    %eax,%edi
    2285:	78 2d                	js     22b4 <caml_interprete+0x22b4>
    2287:	48 63 c8             	movslq %eax,%rcx
    228a:	89 fa                	mov    %edi,%edx
    228c:	48 8d 04 cd 00 00 00 	lea    0x0(,%rcx,8),%rax
    2293:	00 
    2294:	48 29 d1             	sub    %rdx,%rcx
    2297:	48 c1 e1 03          	shl    $0x3,%rcx
    229b:	0f 1f 44 00 00       	nopl   0x0(%rax,%rax,1)
    22a0:	48 8b 14 06          	mov    (%rsi,%rax,1),%rdx
    22a4:	49 89 14 06          	mov    %rdx,(%r14,%rax,1)
    22a8:	48 89 c2             	mov    %rax,%rdx
    22ab:	48 83 e8 08          	sub    $0x8,%rax
    22af:	48 39 ca             	cmp    %rcx,%rdx
    22b2:	75 ec                	jne    22a0 <caml_interprete+0x22a0>
    22b4:	48 63 c7             	movslq %edi,%rax
    22b7:	4d 8b 7d 00          	mov    0x0(%r13),%r15
    22bb:	4c 89 eb             	mov    %r13,%rbx
    22be:	49 01 c4             	add    %rax,%r12
    22c1:	e9 a7 de ff ff       	jmpq   16d <caml_interprete+0x16d>
    22c6:	f3 0f 1e fa          	endbr64 
    22ca:	49 63 17             	movslq (%r15),%rdx
    22cd:	49 8b 06             	mov    (%r14),%rax
    22d0:	4c 89 eb             	mov    %r13,%rbx
    22d3:	4d 8d 74 d6 f8       	lea    -0x8(%r14,%rdx,8),%r14
    22d8:	49 89 06             	mov    %rax,(%r14)
    22db:	4d 8b 7d 00          	mov    0x0(%r13),%r15
    22df:	e9 89 de ff ff       	jmpq   16d <caml_interprete+0x16d>
    22e4:	f3 0f 1e fa          	endbr64 
    22e8:	4c 89 f0             	mov    %r14,%rax
    22eb:	48 8d 35 25 e7 ff ff 	lea    -0x18db(%rip),%rsi        # a17 <caml_interprete+0xa17>
    22f2:	4d 8d 76 08          	lea    0x8(%r14),%r14
    22f6:	48 8b 08             	mov    (%rax),%rcx
    22f9:	4c 89 f8             	mov    %r15,%rax
    22fc:	4d 8d 7f 04          	lea    0x4(%r15),%r15
    2300:	48 63 00             	movslq (%rax),%rax
    2303:	48 d1 f9             	sar    %rcx
    2306:	49 d3 fd             	sar    %cl,%r13
    2309:	48 01 f0             	add    %rsi,%rax
    230c:	49 83 cd 01          	or     $0x1,%r13
    2310:	ff e0                	jmpq   *%rax
    2312:	f3 0f 1e fa          	endbr64 
    2316:	4c 89 f0             	mov    %r14,%rax
    2319:	48 8d 3d f7 e6 ff ff 	lea    -0x1909(%rip),%rdi        # a17 <caml_interprete+0xa17>
    2320:	4d 8d 76 08          	lea    0x8(%r14),%r14
    2324:	4c 39 28             	cmp    %r13,(%rax)
    2327:	0f 94 c0             	sete   %al
    232a:	0f b6 c0             	movzbl %al,%eax
    232d:	4c 8d 6c 00 01       	lea    0x1(%rax,%rax,1),%r13
    2332:	4c 89 f8             	mov    %r15,%rax
    2335:	4d 8d 7f 04          	lea    0x4(%r15),%r15
    2339:	48 63 00             	movslq (%rax),%rax
    233c:	48 01 f8             	add    %rdi,%rax
    233f:	ff e0                	jmpq   *%rax
    2341:	f3 0f 1e fa          	endbr64 
    2345:	4c 89 f0             	mov    %r14,%rax
    2348:	48 8d 0d c8 e6 ff ff 	lea    -0x1938(%rip),%rcx        # a17 <caml_interprete+0xa17>
    234f:	4d 8d 76 08          	lea    0x8(%r14),%r14
    2353:	4c 39 28             	cmp    %r13,(%rax)
    2356:	0f 95 c0             	setne  %al
    2359:	0f b6 c0             	movzbl %al,%eax
    235c:	4c 8d 6c 00 01       	lea    0x1(%rax,%rax,1),%r13
    2361:	4c 89 f8             	mov    %r15,%rax
    2364:	4d 8d 7f 04          	lea    0x4(%r15),%r15
    2368:	48 63 00             	movslq (%rax),%rax
    236b:	48 01 c8             	add    %rcx,%rax
    236e:	ff e0                	jmpq   *%rax
    2370:	f3 0f 1e fa          	endbr64 
    2374:	4c 89 f0             	mov    %r14,%rax
    2377:	48 8d 35 99 e6 ff ff 	lea    -0x1967(%rip),%rsi        # a17 <caml_interprete+0xa17>
    237e:	4d 8d 76 08          	lea    0x8(%r14),%r14
    2382:	4c 39 28             	cmp    %r13,(%rax)
    2385:	0f 9f c0             	setg   %al
    2388:	0f b6 c0             	movzbl %al,%eax
    238b:	4c 8d 6c 00 01       	lea    0x1(%rax,%rax,1),%r13
    2390:	4c 89 f8             	mov    %r15,%rax
    2393:	4d 8d 7f 04          	lea    0x4(%r15),%r15
    2397:	48 63 00             	movslq (%rax),%rax
    239a:	48 01 f0             	add    %rsi,%rax
    239d:	ff e0                	jmpq   *%rax
    239f:	f3 0f 1e fa          	endbr64 
    23a3:	4c 89 f2             	mov    %r14,%rdx
    23a6:	49 d1 fd             	sar    %r13
    23a9:	48 8d 3d 67 e6 ff ff 	lea    -0x1999(%rip),%rdi        # a17 <caml_interprete+0xa17>
    23b0:	4d 8d 76 08          	lea    0x8(%r14),%r14
    23b4:	48 8b 02             	mov    (%rdx),%rax
    23b7:	48 d1 f8             	sar    %rax
    23ba:	49 0f af c5          	imul   %r13,%rax
    23be:	4c 8d 6c 00 01       	lea    0x1(%rax,%rax,1),%r13
    23c3:	4c 89 f8             	mov    %r15,%rax
    23c6:	4d 8d 7f 04          	lea    0x4(%r15),%r15
    23ca:	48 63 00             	movslq (%rax),%rax
    23cd:	48 01 f8             	add    %rdi,%rax
    23d0:	ff e0                	jmpq   *%rax
    23d2:	f3 0f 1e fa          	endbr64 
    23d6:	4c 89 f0             	mov    %r14,%rax
    23d9:	4d 8d 76 08          	lea    0x8(%r14),%r14
    23dd:	48 8b 08             	mov    (%rax),%rcx
    23e0:	48 d1 f9             	sar    %rcx
    23e3:	0f 84 01 0b 00 00    	je     2eea <caml_interprete+0x2eea>
    23e9:	4c 89 e8             	mov    %r13,%rax
    23ec:	48 d1 f8             	sar    %rax
    23ef:	48 99                	cqto   
    23f1:	48 f7 f9             	idiv   %rcx
    23f4:	48 8d 0d 1c e6 ff ff 	lea    -0x19e4(%rip),%rcx        # a17 <caml_interprete+0xa17>
    23fb:	4c 8d 6c 00 01       	lea    0x1(%rax,%rax,1),%r13
    2400:	4c 89 f8             	mov    %r15,%rax
    2403:	4d 8d 7f 04          	lea    0x4(%r15),%r15
    2407:	48 63 00             	movslq (%rax),%rax
    240a:	48 01 c8             	add    %rcx,%rax
    240d:	ff e0                	jmpq   *%rax
    240f:	f3 0f 1e fa          	endbr64 
    2413:	4c 89 f0             	mov    %r14,%rax
    2416:	4d 8d 76 08          	lea    0x8(%r14),%r14
    241a:	48 8b 08             	mov    (%rax),%rcx
    241d:	48 d1 f9             	sar    %rcx
    2420:	0f 84 c4 0a 00 00    	je     2eea <caml_interprete+0x2eea>
    2426:	4c 89 e8             	mov    %r13,%rax
    2429:	48 8d 35 e7 e5 ff ff 	lea    -0x1a19(%rip),%rsi        # a17 <caml_interprete+0xa17>
    2430:	48 d1 f8             	sar    %rax
    2433:	48 99                	cqto   
    2435:	48 f7 f9             	idiv   %rcx
    2438:	4c 89 f8             	mov    %r15,%rax
    243b:	4d 8d 7f 04          	lea    0x4(%r15),%r15
    243f:	48 63 00             	movslq (%rax),%rax
    2442:	48 01 f0             	add    %rsi,%rax
    2445:	4c 8d 6c 12 01       	lea    0x1(%rdx,%rdx,1),%r13
    244a:	ff e0                	jmpq   *%rax
    244c:	f3 0f 1e fa          	endbr64 
    2450:	4c 89 f0             	mov    %r14,%rax
    2453:	48 8d 3d bd e5 ff ff 	lea    -0x1a43(%rip),%rdi        # a17 <caml_interprete+0xa17>
    245a:	4d 8d 76 08          	lea    0x8(%r14),%r14
    245e:	4c 23 28             	and    (%rax),%r13
    2461:	4c 89 f8             	mov    %r15,%rax
    2464:	4d 8d 7f 04          	lea    0x4(%r15),%r15
    2468:	48 63 00             	movslq (%rax),%rax
    246b:	48 01 f8             	add    %rdi,%rax
    246e:	ff e0                	jmpq   *%rax
    2470:	f3 0f 1e fa          	endbr64 
    2474:	4c 89 f0             	mov    %r14,%rax
    2477:	48 8d 0d 99 e5 ff ff 	lea    -0x1a67(%rip),%rcx        # a17 <caml_interprete+0xa17>
    247e:	4d 8d 76 08          	lea    0x8(%r14),%r14
    2482:	4c 0b 28             	or     (%rax),%r13
    2485:	4c 89 f8             	mov    %r15,%rax
    2488:	4d 8d 7f 04          	lea    0x4(%r15),%r15
    248c:	48 63 00             	movslq (%rax),%rax
    248f:	48 01 c8             	add    %rcx,%rax
    2492:	ff e0                	jmpq   *%rax
    2494:	f3 0f 1e fa          	endbr64 
    2498:	4c 89 f0             	mov    %r14,%rax
    249b:	48 8d 35 75 e5 ff ff 	lea    -0x1a8b(%rip),%rsi        # a17 <caml_interprete+0xa17>
    24a2:	4d 8d 76 08          	lea    0x8(%r14),%r14
    24a6:	4c 33 28             	xor    (%rax),%r13
    24a9:	4c 89 f8             	mov    %r15,%rax
    24ac:	4d 8d 7f 04          	lea    0x4(%r15),%r15
    24b0:	48 63 00             	movslq (%rax),%rax
    24b3:	49 83 cd 01          	or     $0x1,%r13
    24b7:	48 01 f0             	add    %rsi,%rax
    24ba:	ff e0                	jmpq   *%rax
    24bc:	f3 0f 1e fa          	endbr64 
    24c0:	4c 89 f0             	mov    %r14,%rax
    24c3:	49 83 ed 01          	sub    $0x1,%r13
    24c7:	48 8d 3d 49 e5 ff ff 	lea    -0x1ab7(%rip),%rdi        # a17 <caml_interprete+0xa17>
    24ce:	48 8b 08             	mov    (%rax),%rcx
    24d1:	4c 89 f8             	mov    %r15,%rax
    24d4:	4d 8d 76 08          	lea    0x8(%r14),%r14
    24d8:	4d 8d 7f 04          	lea    0x4(%r15),%r15
    24dc:	48 63 00             	movslq (%rax),%rax
    24df:	48 d1 f9             	sar    %rcx
    24e2:	49 d3 e5             	shl    %cl,%r13
    24e5:	48 01 f8             	add    %rdi,%rax
    24e8:	49 83 c5 01          	add    $0x1,%r13
    24ec:	ff e0                	jmpq   *%rax
    24ee:	f3 0f 1e fa          	endbr64 
    24f2:	4c 89 f0             	mov    %r14,%rax
    24f5:	4d 8d 76 08          	lea    0x8(%r14),%r14
    24f9:	48 8b 08             	mov    (%rax),%rcx
    24fc:	4c 89 f8             	mov    %r15,%rax
    24ff:	4d 8d 7f 04          	lea    0x4(%r15),%r15
    2503:	48 63 00             	movslq (%rax),%rax
    2506:	48 d1 f9             	sar    %rcx
    2509:	49 d3 ed             	shr    %cl,%r13
    250c:	48 8d 0d 04 e5 ff ff 	lea    -0x1afc(%rip),%rcx        # a17 <caml_interprete+0xa17>
    2513:	48 01 c8             	add    %rcx,%rax
    2516:	49 83 cd 01          	or     $0x1,%r13
    251a:	ff e0                	jmpq   *%rax
    251c:	f3 0f 1e fa          	endbr64 
    2520:	41 8b 07             	mov    (%r15),%eax
    2523:	4d 8b 7d 00          	mov    0x0(%r13),%r15
    2527:	4c 89 eb             	mov    %r13,%rbx
    252a:	83 e8 01             	sub    $0x1,%eax
    252d:	4c 63 e0             	movslq %eax,%r12
    2530:	4d 85 ff             	test   %r15,%r15
    2533:	0f 85 34 dc ff ff    	jne    16d <caml_interprete+0x16d>
    2539:	48 8d 0d 00 00 00 00 	lea    0x0(%rip),%rcx        # 2540 <caml_interprete+0x2540>
    2540:	31 d2                	xor    %edx,%edx
    2542:	bf 01 00 00 00       	mov    $0x1,%edi
    2547:	31 c0                	xor    %eax,%eax
    2549:	48 8d 35 00 00 00 00 	lea    0x0(%rip),%rsi        # 2550 <caml_interprete+0x2550>
    2550:	e8 00 00 00 00       	callq  2555 <caml_interprete+0x2555>
    2555:	e9 13 dc ff ff       	jmpq   16d <caml_interprete+0x16d>
    255a:	f3 0f 1e fa          	endbr64 
    255e:	49 8b 16             	mov    (%r14),%rdx
    2561:	4c 89 f0             	mov    %r14,%rax
    2564:	4d 8d 76 e8          	lea    -0x18(%r14),%r14
    2568:	4c 89 78 f0          	mov    %r15,-0x10(%rax)
    256c:	48 89 50 e8          	mov    %rdx,-0x18(%rax)
    2570:	4b 8d 54 24 01       	lea    0x1(%r12,%r12,1),%rdx
    2575:	48 89 58 f8          	mov    %rbx,-0x8(%rax)
    2579:	48 89 10             	mov    %rdx,(%rax)
    257c:	4d 8b 7d 00          	mov    0x0(%r13),%r15
    2580:	4d 85 ff             	test   %r15,%r15
    2583:	0f 84 59 03 00 00    	je     28e2 <caml_interprete+0x28e2>
    2589:	4c 89 eb             	mov    %r13,%rbx
    258c:	45 31 e4             	xor    %r12d,%r12d
    258f:	e9 d9 db ff ff       	jmpq   16d <caml_interprete+0x16d>
    2594:	f3 0f 1e fa          	endbr64 
    2598:	49 63 07             	movslq (%r15),%rax
    259b:	48 8d 3d 75 e4 ff ff 	lea    -0x1b8b(%rip),%rdi        # a17 <caml_interprete+0xa17>
    25a2:	49 8d 04 87          	lea    (%r15,%rax,4),%rax
    25a6:	4c 8d 78 04          	lea    0x4(%rax),%r15
    25aa:	48 63 00             	movslq (%rax),%rax
    25ad:	48 01 f8             	add    %rdi,%rax
    25b0:	ff e0                	jmpq   *%rax
    25b2:	8d 48 fe             	lea    -0x2(%rax),%ecx
    25b5:	e9 3d e7 ff ff       	jmpq   cf7 <caml_interprete+0xcf7>
    25ba:	be 01 00 00 00       	mov    $0x1,%esi
    25bf:	bf 04 00 00 00       	mov    $0x4,%edi
    25c4:	e8 00 00 00 00       	callq  25c9 <caml_interprete+0x25c9>
    25c9:	e9 3f e0 ff ff       	jmpq   60d <caml_interprete+0x60d>
    25ce:	48 8b 05 00 00 00 00 	mov    0x0(%rip),%rax        # 25d5 <caml_interprete+0x25d5>
    25d5:	49 8d 6c 24 01       	lea    0x1(%r12),%rbp
    25da:	48 c7 c1 f8 ff ff ff 	mov    $0xfffffffffffffff8,%rcx
    25e1:	4c 89 fe             	mov    %r15,%rsi
    25e4:	64 48 8b 38          	mov    %fs:(%rax),%rdi
    25e8:	49 8d 44 24 04       	lea    0x4(%r12),%rax
    25ed:	48 89 ac 24 a0 00 00 	mov    %rbp,0xa0(%rsp)
    25f4:	00 
    25f5:	4c 8d 24 c5 00 00 00 	lea    0x0(,%rax,8),%r12
    25fc:	00 
    25fd:	48 8b 2c 24          	mov    (%rsp),%rbp
    2601:	48 8b 57 08          	mov    0x8(%rdi),%rdx
    2605:	4c 29 e1             	sub    %r12,%rcx
    2608:	49 89 f8             	mov    %rdi,%r8
    260b:	4d 8d 4c 24 08       	lea    0x8(%r12),%r9
    2610:	4c 89 a4 24 98 00 00 	mov    %r12,0x98(%rsp)
    2617:	00 
    2618:	49 89 cc             	mov    %rcx,%r12
    261b:	48 01 ca             	add    %rcx,%rdx
    261e:	48 89 57 08          	mov    %rdx,0x8(%rdi)
    2622:	48 89 df             	mov    %rbx,%rdi
    2625:	4c 89 c3             	mov    %r8,%rbx
    2628:	4d 8b 18             	mov    (%r8),%r11
    262b:	4c 39 da             	cmp    %r11,%rdx
    262e:	0f 82 14 08 00 00    	jb     2e48 <caml_interprete+0x2e48>
    2634:	48 89 d9             	mov    %rbx,%rcx
    2637:	48 c1 e0 0a          	shl    $0xa,%rax
    263b:	48 8b ac 24 a0 00 00 	mov    0xa0(%rsp),%rbp
    2642:	00 
    2643:	4c 8b a4 24 98 00 00 	mov    0x98(%rsp),%r12
    264a:	00 
    264b:	48 8b 51 08          	mov    0x8(%rcx),%rdx
    264f:	48 05 f7 00 00 00    	add    $0xf7,%rax
    2655:	48 89 02             	mov    %rax,(%rdx)
    2658:	48 8b 71 08          	mov    0x8(%rcx),%rsi
    265c:	4c 89 f1             	mov    %r14,%rcx
    265f:	4c 8d 46 08          	lea    0x8(%rsi),%r8
    2663:	49 89 78 10          	mov    %rdi,0x10(%r8)
    2667:	4d 89 c5             	mov    %r8,%r13
    266a:	48 85 ed             	test   %rbp,%rbp
    266d:	74 1b                	je     268a <caml_interprete+0x268a>
    266f:	31 c0                	xor    %eax,%eax
    2671:	0f 1f 80 00 00 00 00 	nopl   0x0(%rax)
    2678:	48 8b 14 c1          	mov    (%rcx,%rax,8),%rdx
    267c:	48 89 54 c6 20       	mov    %rdx,0x20(%rsi,%rax,8)
    2681:	48 83 c0 01          	add    $0x1,%rax
    2685:	48 39 c5             	cmp    %rax,%rbp
    2688:	75 ee                	jne    2678 <caml_interprete+0x2678>
    268a:	49 8d 47 f4          	lea    -0xc(%r15),%rax
    268e:	48 89 46 08          	mov    %rax,0x8(%rsi)
    2692:	4a 8d 44 21 e8       	lea    -0x18(%rcx,%r12,1),%rax
    2697:	49 c7 40 08 05 00 00 	movq   $0x5,0x8(%r8)
    269e:	00 
    269f:	49 89 c6             	mov    %rax,%r14
    26a2:	48 8b 34 24          	mov    (%rsp),%rsi
    26a6:	48 8b 7e 20          	mov    0x20(%rsi),%rdi
    26aa:	48 39 47 10          	cmp    %rax,0x10(%rdi)
    26ae:	0f 84 16 08 00 00    	je     2eca <caml_interprete+0x2eca>
    26b4:	4c 8b 38             	mov    (%rax),%r15
    26b7:	4d 8b 66 10          	mov    0x10(%r14),%r12
    26bb:	48 8d 0d 55 e3 ff ff 	lea    -0x1cab(%rip),%rcx        # a17 <caml_interprete+0xa17>
    26c2:	49 83 c6 18          	add    $0x18,%r14
    26c6:	49 8b 5e f0          	mov    -0x10(%r14),%rbx
    26ca:	4c 89 f8             	mov    %r15,%rax
    26cd:	49 d1 fc             	sar    %r12
    26d0:	4d 8d 7f 04          	lea    0x4(%r15),%r15
    26d4:	48 63 00             	movslq (%rax),%rax
    26d7:	48 01 c8             	add    %rcx,%rax
    26da:	ff e0                	jmpq   *%rax
    26dc:	48 d1 f8             	sar    %rax
    26df:	48 63 04 82          	movslq (%rdx,%rax,4),%rax
    26e3:	48 8d 04 82          	lea    (%rdx,%rax,4),%rax
    26e7:	e9 98 f0 ff ff       	jmpq   1784 <caml_interprete+0x1784>
    26ec:	8b 0f                	mov    (%rdi),%ecx
    26ee:	ba 03 00 00 00       	mov    $0x3,%edx
    26f3:	eb 16                	jmp    270b <caml_interprete+0x270b>
    26f5:	0f 1f 00             	nopl   (%rax)
    26f8:	8d 04 0a             	lea    (%rdx,%rcx,1),%eax
    26fb:	d1 f8                	sar    %eax
    26fd:	83 c8 01             	or     $0x1,%eax
    2700:	48 63 f0             	movslq %eax,%rsi
    2703:	4d 3b 04 f1          	cmp    (%r9,%rsi,8),%r8
    2707:	7c 1e                	jl     2727 <caml_interprete+0x2727>
    2709:	89 c2                	mov    %eax,%edx
    270b:	39 ca                	cmp    %ecx,%edx
    270d:	7c e9                	jl     26f8 <caml_interprete+0x26f8>
    270f:	8d 04 d5 e8 ff ff ff 	lea    -0x18(,%rdx,8),%eax
    2716:	41 89 02             	mov    %eax,(%r10)
    2719:	8d 42 ff             	lea    -0x1(%rdx),%eax
    271c:	48 98                	cltq   
    271e:	4c 8b 2c c7          	mov    (%rdi,%rax,8),%r13
    2722:	e9 82 e5 ff ff       	jmpq   ca9 <caml_interprete+0xca9>
    2727:	8d 48 fe             	lea    -0x2(%rax),%ecx
    272a:	eb df                	jmp    270b <caml_interprete+0x270b>
    272c:	8b 6c 24 30          	mov    0x30(%rsp),%ebp
    2730:	be f7 00 00 00       	mov    $0xf7,%esi
    2735:	8d 7d 02             	lea    0x2(%rbp),%edi
    2738:	48 63 ff             	movslq %edi,%rdi
    273b:	e8 00 00 00 00       	callq  2740 <caml_interprete+0x2740>
    2740:	8d 7d ff             	lea    -0x1(%rbp),%edi
    2743:	31 ed                	xor    %ebp,%ebp
    2745:	48 89 9c 24 80 00 00 	mov    %rbx,0x80(%rsp)
    274c:	00 
    274d:	4c 89 a4 24 88 00 00 	mov    %r12,0x88(%rsp)
    2754:	00 
    2755:	49 89 c5             	mov    %rax,%r13
    2758:	49 89 ec             	mov    %rbp,%r12
    275b:	4c 89 f3             	mov    %r14,%rbx
    275e:	48 89 44 24 60       	mov    %rax,0x60(%rsp)
    2763:	48 89 c5             	mov    %rax,%rbp
    2766:	48 89 44 24 58       	mov    %rax,0x58(%rsp)
    276b:	48 89 7c 24 28       	mov    %rdi,0x28(%rsp)
    2770:	eb 09                	jmp    277b <caml_interprete+0x277b>
    2772:	66 0f 1f 44 00 00    	nopw   0x0(%rax,%rax,1)
    2778:	49 89 d4             	mov    %rdx,%r12
    277b:	41 8d 54 24 02       	lea    0x2(%r12),%edx
    2780:	4a 8b 34 e3          	mov    (%rbx,%r12,8),%rsi
    2784:	48 63 d2             	movslq %edx,%rdx
    2787:	48 8d 7c d5 00       	lea    0x0(%rbp,%rdx,8),%rdi
    278c:	e8 00 00 00 00       	callq  2791 <caml_interprete+0x2791>
    2791:	49 8d 54 24 01       	lea    0x1(%r12),%rdx
    2796:	4c 39 64 24 28       	cmp    %r12,0x28(%rsp)
    279b:	75 db                	jne    2778 <caml_interprete+0x2778>
    279d:	48 8b 9c 24 80 00 00 	mov    0x80(%rsp),%rbx
    27a4:	00 
    27a5:	4c 8b a4 24 88 00 00 	mov    0x88(%rsp),%r12
    27ac:	00 
    27ad:	4c 8b 44 24 60       	mov    0x60(%rsp),%r8
    27b2:	e9 4e f8 ff ff       	jmpq   2005 <caml_interprete+0x2005>
    27b7:	48 89 ef             	mov    %rbp,%rdi
    27ba:	be f7 00 00 00       	mov    $0xf7,%esi
    27bf:	89 94 24 08 01 00 00 	mov    %edx,0x108(%rsp)
    27c6:	e8 00 00 00 00       	callq  27cb <caml_interprete+0x27cb>
    27cb:	8b 94 24 08 01 00 00 	mov    0x108(%rsp),%edx
    27d2:	49 89 c5             	mov    %rax,%r13
    27d5:	48 8b 44 24 38       	mov    0x38(%rsp),%rax
    27da:	49 8d 6c c5 00       	lea    0x0(%r13,%rax,8),%rbp
    27df:	85 d2                	test   %edx,%edx
    27e1:	0f 8e f9 06 00 00    	jle    2ee0 <caml_interprete+0x2ee0>
    27e7:	4c 89 f0             	mov    %r14,%rax
    27ea:	83 ea 01             	sub    $0x1,%edx
    27ed:	4c 89 74 24 40       	mov    %r14,0x40(%rsp)
    27f2:	48 8d 74 d5 08       	lea    0x8(%rbp,%rdx,8),%rsi
    27f7:	48 29 e8             	sub    %rbp,%rax
    27fa:	48 89 5c 24 78       	mov    %rbx,0x78(%rsp)
    27ff:	49 89 f6             	mov    %rsi,%r14
    2802:	48 89 c3             	mov    %rax,%rbx
    2805:	0f 1f 00             	nopl   (%rax)
    2808:	48 8b 74 1d 00       	mov    0x0(%rbp,%rbx,1),%rsi
    280d:	48 89 ef             	mov    %rbp,%rdi
    2810:	48 83 c5 08          	add    $0x8,%rbp
    2814:	e8 00 00 00 00       	callq  2819 <caml_interprete+0x2819>
    2819:	4c 39 f5             	cmp    %r14,%rbp
    281c:	75 ea                	jne    2808 <caml_interprete+0x2808>
    281e:	48 8b 5c 24 78       	mov    0x78(%rsp),%rbx
    2823:	e9 e9 f8 ff ff       	jmpq   2111 <caml_interprete+0x2111>
    2828:	be fe 00 00 00       	mov    $0xfe,%esi
    282d:	48 89 ef             	mov    %rbp,%rdi
    2830:	e8 00 00 00 00       	callq  2835 <caml_interprete+0x2835>
    2835:	f2 41 0f 10 45 00    	movsd  0x0(%r13),%xmm0
    283b:	48 89 c6             	mov    %rax,%rsi
    283e:	48 89 c2             	mov    %rax,%rdx
    2841:	f2 0f 11 00          	movsd  %xmm0,(%rax)
    2845:	e9 6f ec ff ff       	jmpq   14b9 <caml_interprete+0x14b9>
    284a:	48 89 d7             	mov    %rdx,%rdi
    284d:	44 89 d6             	mov    %r10d,%esi
    2850:	48 89 94 24 90 00 00 	mov    %rdx,0x90(%rsp)
    2857:	00 
    2858:	e8 00 00 00 00       	callq  285d <caml_interprete+0x285d>
    285d:	4c 89 ee             	mov    %r13,%rsi
    2860:	4d 8d 6e 08          	lea    0x8(%r14),%r13
    2864:	48 89 c7             	mov    %rax,%rdi
    2867:	48 89 c5             	mov    %rax,%rbp
    286a:	48 89 44 24 50       	mov    %rax,0x50(%rsp)
    286f:	e8 00 00 00 00       	callq  2874 <caml_interprete+0x2874>
    2874:	48 8b 94 24 90 00 00 	mov    0x90(%rsp),%rdx
    287b:	00 
    287c:	48 89 e8             	mov    %rbp,%rax
    287f:	bd 01 00 00 00       	mov    $0x1,%ebp
    2884:	48 89 5c 24 68       	mov    %rbx,0x68(%rsp)
    2889:	48 89 eb             	mov    %rbp,%rbx
    288c:	4c 89 64 24 70       	mov    %r12,0x70(%rsp)
    2891:	48 89 d5             	mov    %rdx,%rbp
    2894:	4d 89 ec             	mov    %r13,%r12
    2897:	49 89 c5             	mov    %rax,%r13
    289a:	66 0f 1f 44 00 00    	nopw   0x0(%rax,%rax,1)
    28a0:	49 8b 74 24 f8       	mov    -0x8(%r12),%rsi
    28a5:	49 8d 7c dd 00       	lea    0x0(%r13,%rbx,8),%rdi
    28aa:	48 83 c3 01          	add    $0x1,%rbx
    28ae:	4d 89 e6             	mov    %r12,%r14
    28b1:	49 83 c4 08          	add    $0x8,%r12
    28b5:	e8 00 00 00 00       	callq  28ba <caml_interprete+0x28ba>
    28ba:	48 39 dd             	cmp    %rbx,%rbp
    28bd:	75 e1                	jne    28a0 <caml_interprete+0x28a0>
    28bf:	48 8b 5c 24 68       	mov    0x68(%rsp),%rbx
    28c4:	4c 8b 64 24 70       	mov    0x70(%rsp),%r12
    28c9:	e9 ec e9 ff ff       	jmpq   12ba <caml_interprete+0x12ba>
    28ce:	be 01 00 00 00       	mov    $0x1,%esi
    28d3:	bf 04 00 00 00       	mov    $0x4,%edi
    28d8:	e8 00 00 00 00       	callq  28dd <caml_interprete+0x28dd>
    28dd:	e9 a0 f0 ff ff       	jmpq   1982 <caml_interprete+0x1982>
    28e2:	48 8d 0d 00 00 00 00 	lea    0x0(%rip),%rcx        # 28e9 <caml_interprete+0x28e9>
    28e9:	31 d2                	xor    %edx,%edx
    28eb:	bf 01 00 00 00       	mov    $0x1,%edi
    28f0:	31 c0                	xor    %eax,%eax
    28f2:	48 8d 35 00 00 00 00 	lea    0x0(%rip),%rsi        # 28f9 <caml_interprete+0x28f9>
    28f9:	e8 00 00 00 00       	callq  28fe <caml_interprete+0x28fe>
    28fe:	e9 86 fc ff ff       	jmpq   2589 <caml_interprete+0x2589>
    2903:	e8 00 00 00 00       	callq  2908 <caml_interprete+0x2908>
    2908:	48 8b 35 00 00 00 00 	mov    0x0(%rip),%rsi        # 290f <caml_interprete+0x290f>
    290f:	49 89 c5             	mov    %rax,%r13
    2912:	48 8b 05 00 00 00 00 	mov    0x0(%rip),%rax        # 2919 <caml_interprete+0x2919>
    2919:	48 8b 78 60          	mov    0x60(%rax),%rdi
    291d:	e9 e1 e4 ff ff       	jmpq   e03 <caml_interprete+0xe03>
    2922:	48 8d 0d 00 00 00 00 	lea    0x0(%rip),%rcx        # 2929 <caml_interprete+0x2929>
    2929:	31 d2                	xor    %edx,%edx
    292b:	bf 01 00 00 00       	mov    $0x1,%edi
    2930:	31 c0                	xor    %eax,%eax
    2932:	48 8d 35 00 00 00 00 	lea    0x0(%rip),%rsi        # 2939 <caml_interprete+0x2939>
    2939:	e8 00 00 00 00       	callq  293e <caml_interprete+0x293e>
    293e:	e9 ca f8 ff ff       	jmpq   220d <caml_interprete+0x220d>
    2943:	48 8d 0d 00 00 00 00 	lea    0x0(%rip),%rcx        # 294a <caml_interprete+0x294a>
    294a:	31 d2                	xor    %edx,%edx
    294c:	bf 01 00 00 00       	mov    $0x1,%edi
    2951:	31 c0                	xor    %eax,%eax
    2953:	48 8d 35 00 00 00 00 	lea    0x0(%rip),%rsi        # 295a <caml_interprete+0x295a>
    295a:	e8 00 00 00 00       	callq  295f <caml_interprete+0x295f>
    295f:	e9 f6 f8 ff ff       	jmpq   225a <caml_interprete+0x225a>
    2964:	48 8b 05 00 00 00 00 	mov    0x0(%rip),%rax        # 296b <caml_interprete+0x296b>
    296b:	4c 8b 68 60          	mov    0x60(%rax),%r13
    296f:	e9 79 dc ff ff       	jmpq   5ed <caml_interprete+0x5ed>
    2974:	48 83 45 08 10       	addq   $0x10,0x8(%rbp)
    2979:	49 8d 56 e8          	lea    -0x18(%r14),%rdx
    297d:	49 89 5e f0          	mov    %rbx,-0x10(%r14)
    2981:	48 8b 1c 24          	mov    (%rsp),%rbx
    2985:	4d 89 6e e8          	mov    %r13,-0x18(%r14)
    2989:	49 89 76 f8          	mov    %rsi,-0x8(%r14)
    298d:	48 8b 43 20          	mov    0x20(%rbx),%rax
    2991:	48 89 8c 24 b8 01 00 	mov    %rcx,0x1b8(%rsp)
    2998:	00 
    2999:	48 89 10             	mov    %rdx,(%rax)
    299c:	48 89 b4 24 a8 01 00 	mov    %rsi,0x1a8(%rsp)
    29a3:	00 
    29a4:	f2 0f 11 84 24 b0 01 	movsd  %xmm0,0x1b0(%rsp)
    29ab:	00 00 
    29ad:	e8 00 00 00 00       	callq  29b2 <caml_interprete+0x29b2>
    29b2:	48 8b 43 20          	mov    0x20(%rbx),%rax
    29b6:	48 8b 8c 24 b8 01 00 	mov    0x1b8(%rsp),%rcx
    29bd:	00 
    29be:	f2 0f 10 84 24 b0 01 	movsd  0x1b0(%rsp),%xmm0
    29c5:	00 00 
    29c7:	48 8b b4 24 a8 01 00 	mov    0x1a8(%rsp),%rsi
    29ce:	00 
    29cf:	4c 8b 30             	mov    (%rax),%r14
    29d2:	48 8b 45 08          	mov    0x8(%rbp),%rax
    29d6:	48 83 e8 10          	sub    $0x10,%rax
    29da:	4d 8b 2e             	mov    (%r14),%r13
    29dd:	49 8b 5e 08          	mov    0x8(%r14),%rbx
    29e1:	49 83 c6 18          	add    $0x18,%r14
    29e5:	48 89 45 08          	mov    %rax,0x8(%rbp)
    29e9:	e9 88 eb ff ff       	jmpq   1576 <caml_interprete+0x1576>
    29ee:	48 83 45 08 20       	addq   $0x20,0x8(%rbp)
    29f3:	49 8d 56 e8          	lea    -0x18(%r14),%rdx
    29f7:	49 89 5e f0          	mov    %rbx,-0x10(%r14)
    29fb:	48 8b 1c 24          	mov    (%rsp),%rbx
    29ff:	4d 89 6e e8          	mov    %r13,-0x18(%r14)
    2a03:	49 89 4e f8          	mov    %rcx,-0x8(%r14)
    2a07:	48 8b 43 20          	mov    0x20(%rbx),%rax
    2a0b:	48 89 b4 24 78 01 00 	mov    %rsi,0x178(%rsp)
    2a12:	00 
    2a13:	48 89 10             	mov    %rdx,(%rax)
    2a16:	89 bc 24 74 01 00 00 	mov    %edi,0x174(%rsp)
    2a1d:	48 89 8c 24 68 01 00 	mov    %rcx,0x168(%rsp)
    2a24:	00 
    2a25:	e8 00 00 00 00       	callq  2a2a <caml_interprete+0x2a2a>
    2a2a:	48 8b 43 20          	mov    0x20(%rbx),%rax
    2a2e:	48 8b b4 24 78 01 00 	mov    0x178(%rsp),%rsi
    2a35:	00 
    2a36:	8b bc 24 74 01 00 00 	mov    0x174(%rsp),%edi
    2a3d:	48 8b 8c 24 68 01 00 	mov    0x168(%rsp),%rcx
    2a44:	00 
    2a45:	4c 8b 30             	mov    (%rax),%r14
    2a48:	48 8b 45 08          	mov    0x8(%rbp),%rax
    2a4c:	48 8d 50 e0          	lea    -0x20(%rax),%rdx
    2a50:	4d 8b 2e             	mov    (%r14),%r13
    2a53:	49 8b 5e 08          	mov    0x8(%r14),%rbx
    2a57:	49 83 c6 18          	add    $0x18,%r14
    2a5b:	48 89 55 08          	mov    %rdx,0x8(%rbp)
    2a5f:	e9 78 e9 ff ff       	jmpq   13dc <caml_interprete+0x13dc>
    2a64:	48 83 45 08 10       	addq   $0x10,0x8(%rbp)
    2a69:	49 8d 56 e8          	lea    -0x18(%r14),%rdx
    2a6d:	49 89 5e f0          	mov    %rbx,-0x10(%r14)
    2a71:	48 8b 1c 24          	mov    (%rsp),%rbx
    2a75:	4d 89 6e e8          	mov    %r13,-0x18(%r14)
    2a79:	49 89 4e f8          	mov    %rcx,-0x8(%r14)
    2a7d:	48 8b 43 20          	mov    0x20(%rbx),%rax
    2a81:	48 89 b4 24 50 01 00 	mov    %rsi,0x150(%rsp)
    2a88:	00 
    2a89:	48 89 10             	mov    %rdx,(%rax)
    2a8c:	89 bc 24 4c 01 00 00 	mov    %edi,0x14c(%rsp)
    2a93:	48 89 8c 24 40 01 00 	mov    %rcx,0x140(%rsp)
    2a9a:	00 
    2a9b:	e8 00 00 00 00       	callq  2aa0 <caml_interprete+0x2aa0>
    2aa0:	48 8b 43 20          	mov    0x20(%rbx),%rax
    2aa4:	48 8b b4 24 50 01 00 	mov    0x150(%rsp),%rsi
    2aab:	00 
    2aac:	8b bc 24 4c 01 00 00 	mov    0x14c(%rsp),%edi
    2ab3:	48 8b 8c 24 40 01 00 	mov    0x140(%rsp),%rcx
    2aba:	00 
    2abb:	4c 8b 30             	mov    (%rax),%r14
    2abe:	48 8b 45 08          	mov    0x8(%rbp),%rax
    2ac2:	48 83 e8 10          	sub    $0x10,%rax
    2ac6:	4d 8b 2e             	mov    (%r14),%r13
    2ac9:	49 8b 5e 08          	mov    0x8(%r14),%rbx
    2acd:	49 83 c6 18          	add    $0x18,%r14
    2ad1:	48 89 45 08          	mov    %rax,0x8(%rbp)
    2ad5:	e9 25 e8 ff ff       	jmpq   12ff <caml_interprete+0x12ff>
    2ada:	48 83 45 08 18       	addq   $0x18,0x8(%rbp)
    2adf:	49 8d 56 e8          	lea    -0x18(%r14),%rdx
    2ae3:	49 89 5e f0          	mov    %rbx,-0x10(%r14)
    2ae7:	48 8b 1c 24          	mov    (%rsp),%rbx
    2aeb:	4d 89 6e e8          	mov    %r13,-0x18(%r14)
    2aef:	49 89 4e f8          	mov    %rcx,-0x8(%r14)
    2af3:	48 8b 43 20          	mov    0x20(%rbx),%rax
    2af7:	48 89 b4 24 60 01 00 	mov    %rsi,0x160(%rsp)
    2afe:	00 
    2aff:	48 89 10             	mov    %rdx,(%rax)
    2b02:	89 bc 24 70 01 00 00 	mov    %edi,0x170(%rsp)
    2b09:	48 89 8c 24 58 01 00 	mov    %rcx,0x158(%rsp)
    2b10:	00 
    2b11:	e8 00 00 00 00       	callq  2b16 <caml_interprete+0x2b16>
    2b16:	48 8b 43 20          	mov    0x20(%rbx),%rax
    2b1a:	48 8b b4 24 60 01 00 	mov    0x160(%rsp),%rsi
    2b21:	00 
    2b22:	8b bc 24 70 01 00 00 	mov    0x170(%rsp),%edi
    2b29:	48 8b 8c 24 58 01 00 	mov    0x158(%rsp),%rcx
    2b30:	00 
    2b31:	4c 8b 30             	mov    (%rax),%r14
    2b34:	48 8b 45 08          	mov    0x8(%rbp),%rax
    2b38:	48 8d 50 e8          	lea    -0x18(%rax),%rdx
    2b3c:	4d 8b 2e             	mov    (%r14),%r13
    2b3f:	49 8b 5e 08          	mov    0x8(%r14),%rbx
    2b43:	49 83 c6 18          	add    $0x18,%r14
    2b47:	48 89 55 08          	mov    %rdx,0x8(%rbp)
    2b4b:	e9 16 e8 ff ff       	jmpq   1366 <caml_interprete+0x1366>
    2b50:	48 83 45 08 10       	addq   $0x10,0x8(%rbp)
    2b55:	49 8d 7e e8          	lea    -0x18(%r14),%rdi
    2b59:	49 89 5e f0          	mov    %rbx,-0x10(%r14)
    2b5d:	48 8b 1c 24          	mov    (%rsp),%rbx
    2b61:	4d 89 6e e8          	mov    %r13,-0x18(%r14)
    2b65:	49 89 4e f8          	mov    %rcx,-0x8(%r14)
    2b69:	48 8b 43 20          	mov    0x20(%rbx),%rax
    2b6d:	48 89 b4 24 d8 01 00 	mov    %rsi,0x1d8(%rsp)
    2b74:	00 
    2b75:	48 89 38             	mov    %rdi,(%rax)
    2b78:	48 89 94 24 d0 01 00 	mov    %rdx,0x1d0(%rsp)
    2b7f:	00 
    2b80:	4c 89 84 24 c8 01 00 	mov    %r8,0x1c8(%rsp)
    2b87:	00 
    2b88:	48 89 8c 24 c0 01 00 	mov    %rcx,0x1c0(%rsp)
    2b8f:	00 
    2b90:	e8 00 00 00 00       	callq  2b95 <caml_interprete+0x2b95>
    2b95:	48 8b 43 20          	mov    0x20(%rbx),%rax
    2b99:	48 8b b4 24 d8 01 00 	mov    0x1d8(%rsp),%rsi
    2ba0:	00 
    2ba1:	48 8b 94 24 d0 01 00 	mov    0x1d0(%rsp),%rdx
    2ba8:	00 
    2ba9:	4c 8b 84 24 c8 01 00 	mov    0x1c8(%rsp),%r8
    2bb0:	00 
    2bb1:	4c 8b 30             	mov    (%rax),%r14
    2bb4:	48 8b 45 08          	mov    0x8(%rbp),%rax
    2bb8:	48 8b 8c 24 c0 01 00 	mov    0x1c0(%rsp),%rcx
    2bbf:	00 
    2bc0:	48 83 e8 10          	sub    $0x10,%rax
    2bc4:	4d 8b 2e             	mov    (%r14),%r13
    2bc7:	49 8b 5e 08          	mov    0x8(%r14),%rbx
    2bcb:	49 83 c6 18          	add    $0x18,%r14
    2bcf:	48 89 45 08          	mov    %rax,0x8(%rbp)
    2bd3:	e9 1a dc ff ff       	jmpq   7f2 <caml_interprete+0x7f2>
    2bd8:	48 01 45 08          	add    %rax,0x8(%rbp)
    2bdc:	4d 8d 4e e8          	lea    -0x18(%r14),%r9
    2be0:	49 89 5e f0          	mov    %rbx,-0x10(%r14)
    2be4:	48 8b 1c 24          	mov    (%rsp),%rbx
    2be8:	4d 89 6e e8          	mov    %r13,-0x18(%r14)
    2bec:	49 89 76 f8          	mov    %rsi,-0x8(%r14)
    2bf0:	48 8b 7b 20          	mov    0x20(%rbx),%rdi
    2bf4:	4c 89 84 24 38 01 00 	mov    %r8,0x138(%rsp)
    2bfb:	00 
    2bfc:	4c 89 0f             	mov    %r9,(%rdi)
    2bff:	44 89 94 24 48 01 00 	mov    %r10d,0x148(%rsp)
    2c06:	00 
    2c07:	48 89 94 24 30 01 00 	mov    %rdx,0x130(%rsp)
    2c0e:	00 
    2c0f:	48 89 8c 24 28 01 00 	mov    %rcx,0x128(%rsp)
    2c16:	00 
    2c17:	48 89 84 24 20 01 00 	mov    %rax,0x120(%rsp)
    2c1e:	00 
    2c1f:	48 89 b4 24 18 01 00 	mov    %rsi,0x118(%rsp)
    2c26:	00 
    2c27:	e8 00 00 00 00       	callq  2c2c <caml_interprete+0x2c2c>
    2c2c:	48 8b 7b 20          	mov    0x20(%rbx),%rdi
    2c30:	48 8b 8c 24 28 01 00 	mov    0x128(%rsp),%rcx
    2c37:	00 
    2c38:	4c 8b 84 24 38 01 00 	mov    0x138(%rsp),%r8
    2c3f:	00 
    2c40:	44 8b 94 24 48 01 00 	mov    0x148(%rsp),%r10d
    2c47:	00 
    2c48:	4c 8b 37             	mov    (%rdi),%r14
    2c4b:	48 8b 7d 08          	mov    0x8(%rbp),%rdi
    2c4f:	48 8b 94 24 30 01 00 	mov    0x130(%rsp),%rdx
    2c56:	00 
    2c57:	48 8b 84 24 20 01 00 	mov    0x120(%rsp),%rax
    2c5e:	00 
    2c5f:	48 01 cf             	add    %rcx,%rdi
    2c62:	4d 8b 2e             	mov    (%r14),%r13
    2c65:	49 8b 5e 08          	mov    0x8(%r14),%rbx
    2c69:	49 83 c6 18          	add    $0x18,%r14
    2c6d:	48 89 7d 08          	mov    %rdi,0x8(%rbp)
    2c71:	48 8b b4 24 18 01 00 	mov    0x118(%rsp),%rsi
    2c78:	00 
    2c79:	e9 e1 e5 ff ff       	jmpq   125f <caml_interprete+0x125f>
    2c7e:	49 01 41 08          	add    %rax,0x8(%r9)
    2c82:	4d 8d 46 e8          	lea    -0x18(%r14),%r8
    2c86:	49 89 5e f0          	mov    %rbx,-0x10(%r14)
    2c8a:	48 8b 1c 24          	mov    (%rsp),%rbx
    2c8e:	4d 89 6e e8          	mov    %r13,-0x18(%r14)
    2c92:	49 89 76 f8          	mov    %rsi,-0x8(%r14)
    2c96:	48 8b 4b 20          	mov    0x20(%rbx),%rcx
    2c9a:	48 89 bc 24 a0 01 00 	mov    %rdi,0x1a0(%rsp)
    2ca1:	00 
    2ca2:	4c 89 01             	mov    %r8,(%rcx)
    2ca5:	48 89 94 24 98 01 00 	mov    %rdx,0x198(%rsp)
    2cac:	00 
    2cad:	48 89 84 24 90 01 00 	mov    %rax,0x190(%rsp)
    2cb4:	00 
    2cb5:	4c 89 8c 24 88 01 00 	mov    %r9,0x188(%rsp)
    2cbc:	00 
    2cbd:	48 89 b4 24 80 01 00 	mov    %rsi,0x180(%rsp)
    2cc4:	00 
    2cc5:	e8 00 00 00 00       	callq  2cca <caml_interprete+0x2cca>
    2cca:	48 8b 4b 20          	mov    0x20(%rbx),%rcx
    2cce:	4c 8b 8c 24 88 01 00 	mov    0x188(%rsp),%r9
    2cd5:	00 
    2cd6:	48 8b 94 24 98 01 00 	mov    0x198(%rsp),%rdx
    2cdd:	00 
    2cde:	48 8b bc 24 a0 01 00 	mov    0x1a0(%rsp),%rdi
    2ce5:	00 
    2ce6:	4c 8b 31             	mov    (%rcx),%r14
    2ce9:	48 8b 84 24 90 01 00 	mov    0x190(%rsp),%rax
    2cf0:	00 
    2cf1:	48 89 d1             	mov    %rdx,%rcx
    2cf4:	49 03 49 08          	add    0x8(%r9),%rcx
    2cf8:	48 8b b4 24 80 01 00 	mov    0x180(%rsp),%rsi
    2cff:	00 
    2d00:	4d 8b 2e             	mov    (%r14),%r13
    2d03:	49 8b 5e 08          	mov    0x8(%r14),%rbx
    2d07:	49 89 49 08          	mov    %rcx,0x8(%r9)
    2d0b:	49 83 c6 18          	add    $0x18,%r14
    2d0f:	e9 69 e7 ff ff       	jmpq   147d <caml_interprete+0x147d>
    2d14:	4c 89 44 24 58       	mov    %r8,0x58(%rsp)
    2d19:	e9 e7 f2 ff ff       	jmpq   2005 <caml_interprete+0x2005>
    2d1e:	49 01 68 08          	add    %rbp,0x8(%r8)
    2d22:	49 8d 76 e8          	lea    -0x18(%r14),%rsi
    2d26:	49 89 5e f0          	mov    %rbx,-0x10(%r14)
    2d2a:	48 8b 1c 24          	mov    (%rsp),%rbx
    2d2e:	4d 89 6e e8          	mov    %r13,-0x18(%r14)
    2d32:	49 89 56 f8          	mov    %rdx,-0x8(%r14)
    2d36:	48 8b 43 20          	mov    0x20(%rbx),%rax
    2d3a:	48 89 8c 24 e0 00 00 	mov    %rcx,0xe0(%rsp)
    2d41:	00 
    2d42:	48 89 30             	mov    %rsi,(%rax)
    2d45:	48 89 bc 24 d8 00 00 	mov    %rdi,0xd8(%rsp)
    2d4c:	00 
    2d4d:	4c 89 84 24 d0 00 00 	mov    %r8,0xd0(%rsp)
    2d54:	00 
    2d55:	48 89 94 24 c8 00 00 	mov    %rdx,0xc8(%rsp)
    2d5c:	00 
    2d5d:	e8 00 00 00 00       	callq  2d62 <caml_interprete+0x2d62>
    2d62:	48 8b 43 20          	mov    0x20(%rbx),%rax
    2d66:	4c 8b 84 24 d0 00 00 	mov    0xd0(%rsp),%r8
    2d6d:	00 
    2d6e:	48 8b bc 24 d8 00 00 	mov    0xd8(%rsp),%rdi
    2d75:	00 
    2d76:	48 8b 8c 24 e0 00 00 	mov    0xe0(%rsp),%rcx
    2d7d:	00 
    2d7e:	4c 8b 30             	mov    (%rax),%r14
    2d81:	48 8b 94 24 c8 00 00 	mov    0xc8(%rsp),%rdx
    2d88:	00 
    2d89:	48 89 f8             	mov    %rdi,%rax
    2d8c:	49 03 40 08          	add    0x8(%r8),%rax
    2d90:	4d 8b 2e             	mov    (%r14),%r13
    2d93:	49 8b 5e 08          	mov    0x8(%r14),%rbx
    2d97:	49 89 40 08          	mov    %rax,0x8(%r8)
    2d9b:	49 83 c6 18          	add    $0x18,%r14
    2d9f:	e9 ff f1 ff ff       	jmpq   1fa3 <caml_interprete+0x1fa3>
    2da4:	49 01 42 08          	add    %rax,0x8(%r10)
    2da8:	4d 8d 4e e8          	lea    -0x18(%r14),%r9
    2dac:	49 89 5e f0          	mov    %rbx,-0x10(%r14)
    2db0:	48 8b 1c 24          	mov    (%rsp),%rbx
    2db4:	4d 89 6e e8          	mov    %r13,-0x18(%r14)
    2db8:	49 89 7e f8          	mov    %rdi,-0x8(%r14)
    2dbc:	48 8b 73 20          	mov    0x20(%rbx),%rsi
    2dc0:	4c 89 84 24 10 01 00 	mov    %r8,0x110(%rsp)
    2dc7:	00 
    2dc8:	4c 89 0e             	mov    %r9,(%rsi)
    2dcb:	89 94 24 0c 01 00 00 	mov    %edx,0x10c(%rsp)
    2dd2:	48 89 8c 24 00 01 00 	mov    %rcx,0x100(%rsp)
    2dd9:	00 
    2dda:	48 89 84 24 f8 00 00 	mov    %rax,0xf8(%rsp)
    2de1:	00 
    2de2:	4c 89 94 24 f0 00 00 	mov    %r10,0xf0(%rsp)
    2de9:	00 
    2dea:	48 89 bc 24 e8 00 00 	mov    %rdi,0xe8(%rsp)
    2df1:	00 
    2df2:	e8 00 00 00 00       	callq  2df7 <caml_interprete+0x2df7>
    2df7:	48 8b 73 20          	mov    0x20(%rbx),%rsi
    2dfb:	4c 8b 94 24 f0 00 00 	mov    0xf0(%rsp),%r10
    2e02:	00 
    2e03:	48 8b 8c 24 00 01 00 	mov    0x100(%rsp),%rcx
    2e0a:	00 
    2e0b:	4c 8b 84 24 10 01 00 	mov    0x110(%rsp),%r8
    2e12:	00 
    2e13:	4c 8b 36             	mov    (%rsi),%r14
    2e16:	8b 94 24 0c 01 00 00 	mov    0x10c(%rsp),%edx
    2e1d:	48 89 ce             	mov    %rcx,%rsi
    2e20:	49 03 72 08          	add    0x8(%r10),%rsi
    2e24:	48 8b 84 24 f8 00 00 	mov    0xf8(%rsp),%rax
    2e2b:	00 
    2e2c:	4d 8b 2e             	mov    (%r14),%r13
    2e2f:	49 8b 5e 08          	mov    0x8(%r14),%rbx
    2e33:	49 89 72 08          	mov    %rsi,0x8(%r10)
    2e37:	49 83 c6 18          	add    $0x18,%r14
    2e3b:	48 8b bc 24 e8 00 00 	mov    0xe8(%rsp),%rdi
    2e42:	00 
    2e43:	e9 71 f2 ff ff       	jmpq   20b9 <caml_interprete+0x20b9>
    2e48:	4c 01 4b 08          	add    %r9,0x8(%rbx)
    2e4c:	4d 8d 5e e8          	lea    -0x18(%r14),%r11
    2e50:	4d 89 6e e8          	mov    %r13,-0x18(%r14)
    2e54:	49 89 7e f0          	mov    %rdi,-0x10(%r14)
    2e58:	49 89 76 f8          	mov    %rsi,-0x8(%r14)
    2e5c:	48 8b 55 20          	mov    0x20(%rbp),%rdx
    2e60:	4c 89 84 24 c0 00 00 	mov    %r8,0xc0(%rsp)
    2e67:	00 
    2e68:	4c 89 1a             	mov    %r11,(%rdx)
    2e6b:	48 89 84 24 b8 00 00 	mov    %rax,0xb8(%rsp)
    2e72:	00 
    2e73:	4c 89 8c 24 b0 00 00 	mov    %r9,0xb0(%rsp)
    2e7a:	00 
    2e7b:	48 89 b4 24 a8 00 00 	mov    %rsi,0xa8(%rsp)
    2e82:	00 
    2e83:	e8 00 00 00 00       	callq  2e88 <caml_interprete+0x2e88>
    2e88:	48 8b 55 20          	mov    0x20(%rbp),%rdx
    2e8c:	4c 8b 84 24 c0 00 00 	mov    0xc0(%rsp),%r8
    2e93:	00 
    2e94:	48 8b 84 24 b8 00 00 	mov    0xb8(%rsp),%rax
    2e9b:	00 
    2e9c:	4c 8b 8c 24 b0 00 00 	mov    0xb0(%rsp),%r9
    2ea3:	00 
    2ea4:	4c 8b 32             	mov    (%rdx),%r14
    2ea7:	48 8b 53 08          	mov    0x8(%rbx),%rdx
    2eab:	48 8b b4 24 a8 00 00 	mov    0xa8(%rsp),%rsi
    2eb2:	00 
    2eb3:	4c 01 e2             	add    %r12,%rdx
    2eb6:	4d 8b 2e             	mov    (%r14),%r13
    2eb9:	49 8b 7e 08          	mov    0x8(%r14),%rdi
    2ebd:	49 83 c6 18          	add    $0x18,%r14
    2ec1:	48 89 53 08          	mov    %rdx,0x8(%rbx)
    2ec5:	e9 5e f7 ff ff       	jmpq   2628 <caml_interprete+0x2628>
    2eca:	48 8b 50 18          	mov    0x18(%rax),%rdx
    2ece:	48 8b 18             	mov    (%rax),%rbx
    2ed1:	49 89 f6             	mov    %rsi,%r14
    2ed4:	48 89 56 20          	mov    %rdx,0x20(%rsi)
    2ed8:	48 8b 2a             	mov    (%rdx),%rbp
    2edb:	e9 65 d2 ff ff       	jmpq   145 <caml_interprete+0x145>
    2ee0:	4c 89 74 24 40       	mov    %r14,0x40(%rsp)
    2ee5:	e9 27 f2 ff ff       	jmpq   2111 <caml_interprete+0x2111>
    2eea:	49 8d 57 04          	lea    0x4(%r15),%rdx
    2eee:	48 8d 48 f8          	lea    -0x8(%rax),%rcx
    2ef2:	48 89 58 f8          	mov    %rbx,-0x8(%rax)
    2ef6:	48 89 10             	mov    %rdx,(%rax)
    2ef9:	48 8b 04 24          	mov    (%rsp),%rax
    2efd:	48 8b 40 20          	mov    0x20(%rax),%rax
    2f01:	48 89 08             	mov    %rcx,(%rax)
    2f04:	e8 00 00 00 00       	callq  2f09 <caml_interprete+0x2f09>
    2f09:	49 8d 47 04          	lea    0x4(%r15),%rax
    2f0d:	49 89 5e f0          	mov    %rbx,-0x10(%r14)
    2f11:	49 8d 56 f0          	lea    -0x10(%r14),%rdx
    2f15:	49 89 46 f8          	mov    %rax,-0x8(%r14)
    2f19:	48 8b 04 24          	mov    (%rsp),%rax
    2f1d:	48 8b 40 20          	mov    0x20(%rax),%rax
    2f21:	48 89 10             	mov    %rdx,(%rax)
    2f24:	e8 00 00 00 00       	callq  2f29 <caml_interprete+0x2f29>
    2f29:	e8 00 00 00 00       	callq  2f2e <caml_interprete+0x2f2e>
